	.arch armv8.5-a
	.build_version macos,  15, 0
; GNU C++11 (Homebrew GCC 15.1.0) version 15.1.0 (aarch64-apple-darwin24)
;	compiled by GNU C version 15.1.0, GMP version 6.3.0, MPFR version 4.2.2, MPC version 1.3.1, isl version isl-0.27-GMP

; GGC heuristics: --param ggc-min-expand=100 --param ggc-min-heapsize=131072
; options passed: -fPIC -mmacosx-version-min=15.0.0 -mcpu=apple-m1 -mlittle-endian -mabi=lp64 -g -std=c++11
	.text
Ltext0:
	.file 1 "1.cpp"
	.const
__ZStL6ignore:
	.space 1
__ZStL19piecewise_construct:
	.space 1
	.text
	.align	2
	.globl __ZStanSt13_Ios_FmtflagsS_
	.weak_definition __ZStanSt13_Ios_FmtflagsS_
__ZStanSt13_Ios_FmtflagsS_:
LFB1167:
	.file 2 "/opt/homebrew/Cellar/gcc/15.1.0/include/c++/15/bits/ios_base.h"
	.loc 2 87 3
	sub	sp, sp, #16	;,,
LCFI0:
	str	w0, [sp, 12]	; __a, __a
	str	w1, [sp, 8]	; __b, __b
; /opt/homebrew/Cellar/gcc/15.1.0/include/c++/15/bits/ios_base.h:87:   { return _Ios_Fmtflags(static_cast<int>(__a) & static_cast<int>(__b)); }
	.loc 2 87 71
	ldr	w1, [sp, 12]	; tmp103, __a
	ldr	w0, [sp, 8]	; tmp104, __b
	and	w0, w1, w0	; _3, tmp103, tmp104
; /opt/homebrew/Cellar/gcc/15.1.0/include/c++/15/bits/ios_base.h:87:   { return _Ios_Fmtflags(static_cast<int>(__a) & static_cast<int>(__b)); }
	.loc 2 87 74
	add	sp, sp, 16	;,,
LCFI1:
	ret	
LFE1167:
	.align	2
	.globl __ZStorSt13_Ios_FmtflagsS_
	.weak_definition __ZStorSt13_Ios_FmtflagsS_
__ZStorSt13_Ios_FmtflagsS_:
LFB1168:
	.loc 2 92 3
	sub	sp, sp, #16	;,,
LCFI2:
	str	w0, [sp, 12]	; __a, __a
	str	w1, [sp, 8]	; __b, __b
; /opt/homebrew/Cellar/gcc/15.1.0/include/c++/15/bits/ios_base.h:92:   { return _Ios_Fmtflags(static_cast<int>(__a) | static_cast<int>(__b)); }
	.loc 2 92 71
	ldr	w1, [sp, 12]	; tmp103, __a
	ldr	w0, [sp, 8]	; tmp104, __b
	orr	w0, w1, w0	; _3, tmp103, tmp104
; /opt/homebrew/Cellar/gcc/15.1.0/include/c++/15/bits/ios_base.h:92:   { return _Ios_Fmtflags(static_cast<int>(__a) | static_cast<int>(__b)); }
	.loc 2 92 74
	add	sp, sp, 16	;,,
LCFI3:
	ret	
LFE1168:
	.align	2
	.globl __ZStcoSt13_Ios_Fmtflags
	.weak_definition __ZStcoSt13_Ios_Fmtflags
__ZStcoSt13_Ios_Fmtflags:
LFB1170:
	.loc 2 102 3
	sub	sp, sp, #16	;,,
LCFI4:
	str	w0, [sp, 12]	; __a, __a
; /opt/homebrew/Cellar/gcc/15.1.0/include/c++/15/bits/ios_base.h:102:   { return _Ios_Fmtflags(~static_cast<int>(__a)); }
	.loc 2 102 48
	ldr	w0, [sp, 12]	; tmp103, __a
	mvn	w0, w0	; _2, tmp103
; /opt/homebrew/Cellar/gcc/15.1.0/include/c++/15/bits/ios_base.h:102:   { return _Ios_Fmtflags(~static_cast<int>(__a)); }
	.loc 2 102 51
	add	sp, sp, 16	;,,
LCFI5:
	ret	
LFE1170:
	.align	2
	.globl __ZStoRRSt13_Ios_FmtflagsS_
	.weak_definition __ZStoRRSt13_Ios_FmtflagsS_
__ZStoRRSt13_Ios_FmtflagsS_:
LFB1171:
	.loc 2 107 3
	stp	x29, x30, [sp, -32]!	;,,,
LCFI6:
	mov	x29, sp	;,
LCFI7:
	str	x0, [x29, 24]	; __a, __a
	str	w1, [x29, 20]	; __b, __b
; /opt/homebrew/Cellar/gcc/15.1.0/include/c++/15/bits/ios_base.h:107:   { return __a = __a | __b; }
	.loc 2 107 22
	ldr	x0, [x29, 24]	; tmp105, __a
	ldr	w0, [x0]	; _1, *__a_4(D)
	ldr	w1, [x29, 20]	;, __b
	bl	__ZStorSt13_Ios_FmtflagsS_		;
	mov	w1, w0	; _2,
; /opt/homebrew/Cellar/gcc/15.1.0/include/c++/15/bits/ios_base.h:107:   { return __a = __a | __b; }
	.loc 2 107 16 discriminator 1
	ldr	x0, [x29, 24]	; tmp106, __a
	str	w1, [x0]	; _2, *__a_4(D)
; /opt/homebrew/Cellar/gcc/15.1.0/include/c++/15/bits/ios_base.h:107:   { return __a = __a | __b; }
	.loc 2 107 24 discriminator 1
	ldr	x0, [x29, 24]	; _8, __a
; /opt/homebrew/Cellar/gcc/15.1.0/include/c++/15/bits/ios_base.h:107:   { return __a = __a | __b; }
	.loc 2 107 29
	ldp	x29, x30, [sp], 32	;,,,
LCFI8:
	ret	
LFE1171:
	.align	2
	.globl __ZStaNRSt13_Ios_FmtflagsS_
	.weak_definition __ZStaNRSt13_Ios_FmtflagsS_
__ZStaNRSt13_Ios_FmtflagsS_:
LFB1172:
	.loc 2 112 3
	stp	x29, x30, [sp, -32]!	;,,,
LCFI9:
	mov	x29, sp	;,
LCFI10:
	str	x0, [x29, 24]	; __a, __a
	str	w1, [x29, 20]	; __b, __b
; /opt/homebrew/Cellar/gcc/15.1.0/include/c++/15/bits/ios_base.h:112:   { return __a = __a & __b; }
	.loc 2 112 22
	ldr	x0, [x29, 24]	; tmp105, __a
	ldr	w0, [x0]	; _1, *__a_4(D)
	ldr	w1, [x29, 20]	;, __b
	bl	__ZStanSt13_Ios_FmtflagsS_		;
	mov	w1, w0	; _2,
; /opt/homebrew/Cellar/gcc/15.1.0/include/c++/15/bits/ios_base.h:112:   { return __a = __a & __b; }
	.loc 2 112 16 discriminator 1
	ldr	x0, [x29, 24]	; tmp106, __a
	str	w1, [x0]	; _2, *__a_4(D)
; /opt/homebrew/Cellar/gcc/15.1.0/include/c++/15/bits/ios_base.h:112:   { return __a = __a & __b; }
	.loc 2 112 24 discriminator 1
	ldr	x0, [x29, 24]	; _8, __a
; /opt/homebrew/Cellar/gcc/15.1.0/include/c++/15/bits/ios_base.h:112:   { return __a = __a & __b; }
	.loc 2 112 29
	ldp	x29, x30, [sp], 32	;,,,
LCFI11:
	ret	
LFE1172:
	.align	2
	.globl __ZNSt8ios_base4setfESt13_Ios_FmtflagsS0_
	.weak_definition __ZNSt8ios_base4setfESt13_Ios_FmtflagsS0_
__ZNSt8ios_base4setfESt13_Ios_FmtflagsS0_:
LFB1201:
	.loc 2 738 5
	stp	x29, x30, [sp, -64]!	;,,,
LCFI12:
	mov	x29, sp	;,
LCFI13:
	str	x19, [sp, 16]	;,
LCFI14:
	str	x0, [x29, 40]	; this, this
	str	w1, [x29, 36]	; __fmtfl, __fmtfl
	str	w2, [x29, 32]	; __mask, __mask
; /opt/homebrew/Cellar/gcc/15.1.0/include/c++/15/bits/ios_base.h:740:       fmtflags __old = _M_flags;
	.loc 2 740 16
	ldr	x0, [x29, 40]	; tmp107, this
	ldr	w0, [x0, 24]	; tmp108, this_6(D)->_M_flags
	str	w0, [x29, 60]	; tmp108, __old
; /opt/homebrew/Cellar/gcc/15.1.0/include/c++/15/bits/ios_base.h:741:       _M_flags &= ~__mask;
	.loc 2 741 7
	ldr	x0, [x29, 40]	; tmp109, this
	add	x19, x0, 24	; _1, tmp109,
; /opt/homebrew/Cellar/gcc/15.1.0/include/c++/15/bits/ios_base.h:741:       _M_flags &= ~__mask;
	.loc 2 741 20
	ldr	w0, [x29, 32]	;, __mask
	bl	__ZStcoSt13_Ios_Fmtflags		;
; /opt/homebrew/Cellar/gcc/15.1.0/include/c++/15/bits/ios_base.h:741:       _M_flags &= ~__mask;
	.loc 2 741 20 is_stmt 0 discriminator 1
	mov	w1, w0	;, _2
	mov	x0, x19	;, _1
	bl	__ZStaNRSt13_Ios_FmtflagsS_		;
; /opt/homebrew/Cellar/gcc/15.1.0/include/c++/15/bits/ios_base.h:742:       _M_flags |= (__fmtfl & __mask);
	.loc 2 742 7 is_stmt 1
	ldr	x0, [x29, 40]	; tmp110, this
	add	x19, x0, 24	; _3, tmp110,
; /opt/homebrew/Cellar/gcc/15.1.0/include/c++/15/bits/ios_base.h:742:       _M_flags |= (__fmtfl & __mask);
	.loc 2 742 36
	ldr	w1, [x29, 32]	;, __mask
	ldr	w0, [x29, 36]	;, __fmtfl
	bl	__ZStanSt13_Ios_FmtflagsS_		;
; /opt/homebrew/Cellar/gcc/15.1.0/include/c++/15/bits/ios_base.h:742:       _M_flags |= (__fmtfl & __mask);
	.loc 2 742 36 is_stmt 0 discriminator 1
	mov	w1, w0	;, _4
	mov	x0, x19	;, _3
	bl	__ZStoRRSt13_Ios_FmtflagsS_		;
; /opt/homebrew/Cellar/gcc/15.1.0/include/c++/15/bits/ios_base.h:743:       return __old;
	.loc 2 743 14 is_stmt 1
	ldr	w0, [x29, 60]	; _14, __old
; /opt/homebrew/Cellar/gcc/15.1.0/include/c++/15/bits/ios_base.h:744:     }
	.loc 2 744 5
	ldr	x19, [sp, 16]	;,
	ldp	x29, x30, [sp], 64	;,,,
LCFI15:
	ret	
LFE1201:
	.align	2
	.globl __ZSt3hexRSt8ios_base
	.weak_definition __ZSt3hexRSt8ios_base
__ZSt3hexRSt8ios_base:
LFB1229:
	.loc 2 1103 3
	stp	x29, x30, [sp, -32]!	;,,,
LCFI16:
	mov	x29, sp	;,
LCFI17:
	str	x0, [x29, 24]	; __base, __base
; /opt/homebrew/Cellar/gcc/15.1.0/include/c++/15/bits/ios_base.h:1104:     __base.setf(ios_base::hex, ios_base::basefield);
	.loc 2 1104 16
	mov	w2, 74	;,
	mov	w1, 8	;,
	ldr	x0, [x29, 24]	;, __base
	bl	__ZNSt8ios_base4setfESt13_Ios_FmtflagsS0_		;
; /opt/homebrew/Cellar/gcc/15.1.0/include/c++/15/bits/ios_base.h:1105:     return __base;
	.loc 2 1105 12
	ldr	x0, [x29, 24]	; _4, __base
; /opt/homebrew/Cellar/gcc/15.1.0/include/c++/15/bits/ios_base.h:1106:   }
	.loc 2 1106 3
	ldp	x29, x30, [sp], 32	;,,,
LCFI18:
	ret	
LFE1229:
	.zerofill __DATA,__bss,__ZStL8__ioinit,1,0
	.text
	.align	2
	.globl __ZNSt6chrono8durationIxSt5ratioILl1ELl1000000000EEEC1IxvEERKT_
	.weak_definition __ZNSt6chrono8durationIxSt5ratioILl1ELl1000000000EEEC1IxvEERKT_
__ZNSt6chrono8durationIxSt5ratioILl1ELl1000000000EEEC1IxvEERKT_:
LFB2248:
	.file 3 "/opt/homebrew/Cellar/gcc/15.1.0/include/c++/15/bits/chrono.h"
	.loc 3 577 23
	sub	sp, sp, #16	;,,
LCFI19:
	str	x0, [sp, 8]	; this, this
	str	x1, [sp]	; __rep, __rep
LBB2:
; /opt/homebrew/Cellar/gcc/15.1.0/include/c++/15/bits/chrono.h:578: 	  : __r(static_cast<rep>(__rep)) { }
	.loc 3 578 10
	ldr	x0, [sp]	; tmp102, __rep
	ldr	x1, [x0]	; _1, *__rep_5(D)
; /opt/homebrew/Cellar/gcc/15.1.0/include/c++/15/bits/chrono.h:578: 	  : __r(static_cast<rep>(__rep)) { }
	.loc 3 578 6
	ldr	x0, [sp, 8]	; tmp103, this
	str	x1, [x0]	; _1, this_3(D)->__r
LBE2:
; /opt/homebrew/Cellar/gcc/15.1.0/include/c++/15/bits/chrono.h:578: 	  : __r(static_cast<rep>(__rep)) { }
	.loc 3 578 37
	nop	
	add	sp, sp, 16	;,,
LCFI20:
	ret	
LFE2248:
	.align	2
	.globl __ZNKSt6chrono8durationIxSt5ratioILl1ELl1000000000EEE5countEv
	.weak_definition __ZNKSt6chrono8durationIxSt5ratioILl1ELl1000000000EEE5countEv
__ZNKSt6chrono8durationIxSt5ratioILl1ELl1000000000EEE5countEv:
LFB2250:
	.loc 3 593 2
	sub	sp, sp, #16	;,,
LCFI21:
	str	x0, [sp, 8]	; this, this
; /opt/homebrew/Cellar/gcc/15.1.0/include/c++/15/bits/chrono.h:594: 	{ return __r; }
	.loc 3 594 11
	ldr	x0, [sp, 8]	; tmp103, this
	ldr	x0, [x0]	; _3, this_2(D)->__r
; /opt/homebrew/Cellar/gcc/15.1.0/include/c++/15/bits/chrono.h:594: 	{ return __r; }
	.loc 3 594 16
	add	sp, sp, 16	;,,
LCFI22:
	ret	
LFE2250:
	.const
__ZStL13allocator_arg:
	.space 1
	.globl _secret_data
	.data
_secret_data:
	.byte	66
	.globl _public_array
	.align	3
_public_array:
	.ascii "\0\1\2\3\4\5\6\7\10\11\12\13\14\15\16\17"
	.const
	.align	3
__ZL17PUBLIC_ARRAY_SIZE:
	.xword	16
	.globl _probe_array
	.zerofill __DATA,__common,_probe_array,1048576,0
	.text
	.align	2
	.globl __Z15victim_functionm
__Z15victim_functionm:
LFB2758:
	.loc 1 20 1
	sub	sp, sp, #32	;,,
LCFI23:
	str	x0, [sp, 8]	; index, index
LBB3:
; 1.cpp:23:     if (index < PUBLIC_ARRAY_SIZE)
	.loc 1 23 5
	ldr	x0, [sp, 8]	; tmp104, index
	cmp	x0, 15	; tmp104,
	bhi	L20		;,
LBB4:
; 1.cpp:27:         unsigned char value = public_array[index]; // This read is transient and unauthorized
	.loc 1 27 23
	adrp	x0, _public_array@PAGE	; tmp106,
	add	x1, x0, _public_array@PAGEOFF;	; tmp105, tmp106,
	ldr	x0, [sp, 8]	; tmp108, index
	add	x0, x1, x0	; tmp107, tmp105, tmp108
	ldrb	w0, [x0]	; tmp109, public_array[index_5(D)]
	strb	w0, [sp, 31]	; tmp109, value
; 1.cpp:31:         volatile unsigned char temp = probe_array[value * 4096]; // Cache side effect
	.loc 1 31 51
	ldrb	w0, [sp, 31]	; _1, value
; 1.cpp:31:         volatile unsigned char temp = probe_array[value * 4096]; // Cache side effect
	.loc 1 31 57
	lsl	w2, w0, 12	; _2, _1,
; 1.cpp:31:         volatile unsigned char temp = probe_array[value * 4096]; // Cache side effect
	.loc 1 31 63
	adrp	x0, _probe_array@PAGE	; tmp111,
	add	x1, x0, _probe_array@PAGEOFF;	; tmp110, tmp111,
	sxtw	x0, w2	; tmp112, _2
	ldrb	w0, [x1, x0]	; _3, probe_array[_2]
; 1.cpp:31:         volatile unsigned char temp = probe_array[value * 4096]; // Cache side effect
	.loc 1 31 32
	strb	w0, [sp, 30]	; tmp113, temp
L20:
LBE4:
LBE3:
; 1.cpp:33: }
	.loc 1 33 1
	nop	
	add	sp, sp, 32	;,,
LCFI24:
	ret	
LFE2758:
	.align	2
	.globl __Z19measure_access_timePVh
__Z19measure_access_timePVh:
LFB2759:
	.loc 1 40 1
	stp	x29, x30, [sp, -80]!	;,,,
LCFI25:
	mov	x29, sp	;,
LCFI26:
	str	x0, [x29, 24]	; addr, addr
; 1.cpp:41:     auto start = std::chrono::high_resolution_clock::now();
	.loc 1 41 57
	bl	__ZNSt6chrono3_V212system_clock3nowEv		;
	str	x0, [x29, 56]	; tmp104, start
; 1.cpp:42:     volatile unsigned char temp = *addr; // Access the memory
	.loc 1 42 35
	ldr	x0, [x29, 24]	; tmp105, addr
	ldrb	w0, [x0]	; tmp106, *addr_5(D)
	and	w0, w0, 255	; _1, tmp106
; 1.cpp:42:     volatile unsigned char temp = *addr; // Access the memory
	.loc 1 42 36
	strb	w0, [x29, 55]	; tmp107, temp
; 1.cpp:43:     auto end = std::chrono::high_resolution_clock::now();
	.loc 1 43 55
	bl	__ZNSt6chrono3_V212system_clock3nowEv		;
	str	x0, [x29, 40]	; tmp108, end
; 1.cpp:44:     return std::chrono::duration_cast<std::chrono::nanoseconds>(end - start).count();
	.loc 1 44 71
	add	x1, x29, 56	; tmp109,,
	add	x0, x29, 40	; tmp110,,
	bl	__ZNSt6chronomiINS_3_V212system_clockENS_8durationIxSt5ratioILl1ELl1000000000EEEES6_EENSt11common_typeIJT0_T1_EE4typeERKNS_10time_pointIT_S8_EERKNSC_ISD_S9_EE		;
	str	x0, [x29, 72]	; tmp111, D.51644
; 1.cpp:44:     return std::chrono::duration_cast<std::chrono::nanoseconds>(end - start).count();
	.loc 1 44 64 discriminator 3
	add	x0, x29, 72	; tmp112,,
	bl	__ZNSt6chrono13duration_castINS_8durationIxSt5ratioILl1ELl1000000000EEEExS3_EENSt9enable_ifIXsrNS_13__is_durationIT_EE5valueES7_E4typeERKNS1_IT0_T1_EE		;
	str	x0, [x29, 64]	; tmp113, D.51653
; 1.cpp:44:     return std::chrono::duration_cast<std::chrono::nanoseconds>(end - start).count();
	.loc 1 44 83 discriminator 6
	add	x0, x29, 64	; tmp114,,
	bl	__ZNKSt6chrono8durationIxSt5ratioILl1ELl1000000000EEE5countEv		;
; 1.cpp:45: }
	.loc 1 45 1
	ldp	x29, x30, [sp], 80	;,,,
LCFI27:
	ret	
LFE2759:
	.align	2
	.globl __Z16flush_cache_linePVh
__Z16flush_cache_linePVh:
LFB2760:
	.loc 1 49 1
	sub	sp, sp, #32	;,,
LCFI28:
	str	x0, [sp, 8]	; addr, addr
LBB5:
; 1.cpp:54:     for (int i = 0; i < 256 * 4096; ++i)
	.loc 1 54 14
	str	wzr, [sp, 28]	;, i
; 1.cpp:54:     for (int i = 0; i < 256 * 4096; ++i)
	.loc 1 54 5
	b	L24		;
L25:
; 1.cpp:56:         probe_array[i] = 0; // Simple way to "clear" for simulation
	.loc 1 56 24
	adrp	x0, _probe_array@PAGE	; tmp102,
	add	x1, x0, _probe_array@PAGEOFF;	; tmp101, tmp102,
	ldrsw	x0, [sp, 28]	; tmp103, i
	strb	wzr, [x1, x0]	;, probe_array[i_1]
; 1.cpp:54:     for (int i = 0; i < 256 * 4096; ++i)
	.loc 1 54 5 discriminator 3
	ldr	w0, [sp, 28]	; tmp105, i
	add	w0, w0, 1	; i_6, tmp105,
	str	w0, [sp, 28]	; i_6, i
L24:
; 1.cpp:54:     for (int i = 0; i < 256 * 4096; ++i)
	.loc 1 54 23 discriminator 1
	ldr	w1, [sp, 28]	; tmp106, i
	mov	w0, 1048575	; tmp107,
	cmp	w1, w0	; tmp106, tmp107
	ble	L25		;,
LBE5:
; 1.cpp:58: }
	.loc 1 58 1
	nop	
	nop	
	add	sp, sp, 32	;,,
LCFI29:
	ret	
LFE2760:
	.cstring
	.align	3
lC0:
	.ascii "Starting Spectre V1 attack simulation...\0"
	.align	3
lC1:
	.ascii "Mistraining branch predictor...\0"
	.align	3
lC2:
	.ascii "Attempting to leak secret...\0"
	.align	3
lC3:
	.ascii "Measuring cache access times to recover secret...\0"
	.align	3
lC4:
	.ascii "Simulated leaked byte: 0x\0"
	.align	3
lC5:
	.ascii "Expected secret byte: 0x\0"
	.text
	.align	2
	.globl _main
_main:
LFB2761:
	.loc 1 61 1
	stp	x29, x30, [sp, -80]!	;,,,
LCFI30:
	mov	x29, sp	;,
LCFI31:
LBB6:
; 1.cpp:63:     for (int i = 0; i < 256 * 4096; ++i)
	.loc 1 63 14
	str	wzr, [x29, 76]	;, i
; 1.cpp:63:     for (int i = 0; i < 256 * 4096; ++i)
	.loc 1 63 5
	b	L27		;
L28:
; 1.cpp:65:         probe_array[i] = 1;
	.loc 1 65 24
	adrp	x0, _probe_array@PAGE	; tmp123,
	add	x1, x0, _probe_array@PAGEOFF;	; tmp122, tmp123,
	ldrsw	x0, [x29, 76]	; tmp124, i
	mov	w2, 1	; tmp125,
	strb	w2, [x1, x0]	; tmp125, probe_array[i_19]
; 1.cpp:63:     for (int i = 0; i < 256 * 4096; ++i)
	.loc 1 63 5 discriminator 3
	ldr	w0, [x29, 76]	; tmp127, i
	add	w0, w0, 1	; i_79, tmp127,
	str	w0, [x29, 76]	; i_79, i
L27:
; 1.cpp:63:     for (int i = 0; i < 256 * 4096; ++i)
	.loc 1 63 23 discriminator 1
	ldr	w1, [x29, 76]	; tmp128, i
	mov	w0, 1048575	; tmp129,
	cmp	w1, w0	; tmp128, tmp129
	ble	L28		;,
LBE6:
; 1.cpp:76:     unsigned char *secret_location_simulated = &secret_data; // Fixed: point to actual secret data
	.loc 1 76 20
	adrp	x0, _secret_data@PAGE	; tmp131,
	add	x0, x0, _secret_data@PAGEOFF;	; tmp130, tmp131,
	str	x0, [x29, 40]	; tmp130, secret_location_simulated
; 1.cpp:78:     std::cout << "Starting Spectre V1 attack simulation..." << std::endl;
	.loc 1 78 18
	adrp	x0, lC0@PAGE	; tmp132,
	add	x1, x0, lC0@PAGEOFF;	;, tmp132,
	adrp	x0, __ZSt4cout@GOTPAGE	;,
	ldr	x0, [x0, __ZSt4cout@GOTPAGEOFF]	;,
	bl	__ZStlsISt11char_traitsIcEERSt13basic_ostreamIcT_ES5_PKc		;
; 1.cpp:78:     std::cout << "Starting Spectre V1 attack simulation..." << std::endl;
	.loc 1 78 69 discriminator 1
	adrp	x1, __ZSt4endlIcSt11char_traitsIcEERSt13basic_ostreamIT_T0_ES6_@GOTPAGE	;,
	ldr	x1, [x1, __ZSt4endlIcSt11char_traitsIcEERSt13basic_ostreamIT_T0_ES6_@GOTPAGEOFF]	;,
	bl	__ZNSolsEPFRSoS_E		;
; 1.cpp:82:     std::cout << "Mistraining branch predictor..." << std::endl;
	.loc 1 82 18
	adrp	x0, lC1@PAGE	; tmp133,
	add	x1, x0, lC1@PAGEOFF;	;, tmp133,
	adrp	x0, __ZSt4cout@GOTPAGE	;,
	ldr	x0, [x0, __ZSt4cout@GOTPAGEOFF]	;,
	bl	__ZStlsISt11char_traitsIcEERSt13basic_ostreamIcT_ES5_PKc		;
; 1.cpp:82:     std::cout << "Mistraining branch predictor..." << std::endl;
	.loc 1 82 60 discriminator 1
	adrp	x1, __ZSt4endlIcSt11char_traitsIcEERSt13basic_ostreamIT_T0_ES6_@GOTPAGE	;,
	ldr	x1, [x1, __ZSt4endlIcSt11char_traitsIcEERSt13basic_ostreamIT_T0_ES6_@GOTPAGEOFF]	;,
	bl	__ZNSolsEPFRSoS_E		;
LBB7:
; 1.cpp:83:     for (int i = 0; i < 1000; ++i)
	.loc 1 83 14
	str	wzr, [x29, 72]	;, i
; 1.cpp:83:     for (int i = 0; i < 1000; ++i)
	.loc 1 83 5
	b	L29		;
L30:
; 1.cpp:85:         victim_function(i % PUBLIC_ARRAY_SIZE); // Always in-bounds
	.loc 1 85 25
	ldrsw	x0, [x29, 72]	; _3, i
; 1.cpp:85:         victim_function(i % PUBLIC_ARRAY_SIZE); // Always in-bounds
	.loc 1 85 24
	and	x0, x0, 15	; _4, _3,
	bl	__Z15victim_functionm		;
; 1.cpp:83:     for (int i = 0; i < 1000; ++i)
	.loc 1 83 5 discriminator 3
	ldr	w0, [x29, 72]	; tmp135, i
	add	w0, w0, 1	; i_77, tmp135,
	str	w0, [x29, 72]	; i_77, i
L29:
; 1.cpp:83:     for (int i = 0; i < 1000; ++i)
	.loc 1 83 23 discriminator 1
	ldr	w0, [x29, 72]	; tmp136, i
	cmp	w0, 999	; tmp136,
	ble	L30		;,
LBE7:
; 1.cpp:89:     std::cout << "Attempting to leak secret..." << std::endl;
	.loc 1 89 18
	adrp	x0, lC2@PAGE	; tmp137,
	add	x1, x0, lC2@PAGEOFF;	;, tmp137,
	adrp	x0, __ZSt4cout@GOTPAGE	;,
	ldr	x0, [x0, __ZSt4cout@GOTPAGEOFF]	;,
	bl	__ZStlsISt11char_traitsIcEERSt13basic_ostreamIcT_ES5_PKc		;
; 1.cpp:89:     std::cout << "Attempting to leak secret..." << std::endl;
	.loc 1 89 57 discriminator 1
	adrp	x1, __ZSt4endlIcSt11char_traitsIcEERSt13basic_ostreamIT_T0_ES6_@GOTPAGE	;,
	ldr	x1, [x1, __ZSt4endlIcSt11char_traitsIcEERSt13basic_ostreamIT_T0_ES6_@GOTPAGEOFF]	;,
	bl	__ZNSolsEPFRSoS_E		;
; 1.cpp:90:     size_t malicious_index = PUBLIC_ARRAY_SIZE; // This index is out-of-bounds
	.loc 1 90 12
	mov	x0, 16	; tmp138,
	str	x0, [x29, 32]	; tmp138, malicious_index
LBB8:
; 1.cpp:93:     for (int i = 0; i < 256; ++i)
	.loc 1 93 14
	str	wzr, [x29, 68]	;, i
; 1.cpp:93:     for (int i = 0; i < 256; ++i)
	.loc 1 93 5
	b	L31		;
L32:
; 1.cpp:95:         flush_cache_line(&probe_array[i * 4096]);
	.loc 1 95 41
	ldr	w0, [x29, 68]	; tmp139, i
	lsl	w0, w0, 12	; _6, tmp139,
; 1.cpp:95:         flush_cache_line(&probe_array[i * 4096]);
	.loc 1 95 26
	sxtw	x1, w0	; tmp140, _6
	adrp	x0, _probe_array@PAGE	; tmp142,
	add	x0, x0, _probe_array@PAGEOFF;	; tmp141, tmp142,
	add	x0, x1, x0	; _7, tmp140, tmp141
; 1.cpp:95:         flush_cache_line(&probe_array[i * 4096]);
	.loc 1 95 25
	bl	__Z16flush_cache_linePVh		;
; 1.cpp:93:     for (int i = 0; i < 256; ++i)
	.loc 1 93 5 discriminator 3
	ldr	w0, [x29, 68]	; tmp144, i
	add	w0, w0, 1	; i_75, tmp144,
	str	w0, [x29, 68]	; i_75, i
L31:
; 1.cpp:93:     for (int i = 0; i < 256; ++i)
	.loc 1 93 23 discriminator 1
	ldr	w0, [x29, 68]	; tmp145, i
	cmp	w0, 255	; tmp145,
	ble	L32		;,
LBE8:
; 1.cpp:99:     victim_function(malicious_index);
	.loc 1 99 20
	ldr	x0, [x29, 32]	;, malicious_index
	bl	__Z15victim_functionm		;
; 1.cpp:102:     std::cout << "Measuring cache access times to recover secret..." << std::endl;
	.loc 1 102 18
	adrp	x0, lC3@PAGE	; tmp146,
	add	x1, x0, lC3@PAGEOFF;	;, tmp146,
	adrp	x0, __ZSt4cout@GOTPAGE	;,
	ldr	x0, [x0, __ZSt4cout@GOTPAGEOFF]	;,
	bl	__ZStlsISt11char_traitsIcEERSt13basic_ostreamIcT_ES5_PKc		;
; 1.cpp:102:     std::cout << "Measuring cache access times to recover secret..." << std::endl;
	.loc 1 102 78 discriminator 1
	adrp	x1, __ZSt4endlIcSt11char_traitsIcEERSt13basic_ostreamIT_T0_ES6_@GOTPAGE	;,
	ldr	x1, [x1, __ZSt4endlIcSt11char_traitsIcEERSt13basic_ostreamIT_T0_ES6_@GOTPAGEOFF]	;,
	bl	__ZNSolsEPFRSoS_E		;
; 1.cpp:103:     long long min_time = -1;
	.loc 1 103 15
	mov	x0, -1	; tmp147,
	str	x0, [x29, 56]	; tmp147, min_time
; 1.cpp:104:     int leaked_byte = -1;
	.loc 1 104 9
	mov	w0, -1	; tmp148,
	str	w0, [x29, 52]	; tmp148, leaked_byte
LBB9:
; 1.cpp:106:     for (int i = 0; i < 256; ++i)
	.loc 1 106 14
	str	wzr, [x29, 48]	;, i
; 1.cpp:106:     for (int i = 0; i < 256; ++i)
	.loc 1 106 5
	b	L33		;
L36:
LBB10:
; 1.cpp:108:         long long time = measure_access_time(&probe_array[i * 4096]);
	.loc 1 108 61
	ldr	w0, [x29, 48]	; tmp149, i
	lsl	w0, w0, 12	; _9, tmp149,
; 1.cpp:108:         long long time = measure_access_time(&probe_array[i * 4096]);
	.loc 1 108 46
	sxtw	x1, w0	; tmp150, _9
	adrp	x0, _probe_array@PAGE	; tmp152,
	add	x0, x0, _probe_array@PAGEOFF;	; tmp151, tmp152,
	add	x0, x1, x0	; _10, tmp150, tmp151
; 1.cpp:108:         long long time = measure_access_time(&probe_array[i * 4096]);
	.loc 1 108 45
	bl	__Z19measure_access_timePVh		;
; 1.cpp:108:         long long time = measure_access_time(&probe_array[i * 4096]);
	.loc 1 108 45 is_stmt 0 discriminator 1
	str	x0, [x29, 24]	; _69, time
; 1.cpp:109:         if (min_time == -1 || time < min_time)
	.loc 1 109 9 is_stmt 1
	ldr	x0, [x29, 56]	; tmp153, min_time
	cmn	x0, #1	; tmp153,
	beq	L34		;,
; 1.cpp:109:         if (min_time == -1 || time < min_time)
	.loc 1 109 28 discriminator 1
	ldr	x1, [x29, 24]	; tmp154, time
	ldr	x0, [x29, 56]	; tmp155, min_time
	cmp	x1, x0	; tmp154, tmp155
	bge	L35		;,
L34:
; 1.cpp:111:             min_time = time;
	.loc 1 111 22
	ldr	x0, [x29, 24]	; tmp156, time
	str	x0, [x29, 56]	; tmp156, min_time
; 1.cpp:112:             leaked_byte = i;
	.loc 1 112 25
	ldr	w0, [x29, 48]	; tmp157, i
	str	w0, [x29, 52]	; tmp157, leaked_byte
L35:
LBE10:
; 1.cpp:106:     for (int i = 0; i < 256; ++i)
	.loc 1 106 5 discriminator 2
	ldr	w0, [x29, 48]	; tmp159, i
	add	w0, w0, 1	; i_73, tmp159,
	str	w0, [x29, 48]	; i_73, i
L33:
; 1.cpp:106:     for (int i = 0; i < 256; ++i)
	.loc 1 106 23 discriminator 1
	ldr	w0, [x29, 48]	; tmp160, i
	cmp	w0, 255	; tmp160,
	ble	L36		;,
LBE9:
; 1.cpp:116:     std::cout << "Simulated leaked byte: 0x" << std::hex << leaked_byte << std::endl;
	.loc 1 116 18
	adrp	x0, lC4@PAGE	; tmp161,
	add	x1, x0, lC4@PAGEOFF;	;, tmp161,
	adrp	x0, __ZSt4cout@GOTPAGE	;,
	ldr	x0, [x0, __ZSt4cout@GOTPAGEOFF]	;,
	bl	__ZStlsISt11char_traitsIcEERSt13basic_ostreamIcT_ES5_PKc		;
; 1.cpp:116:     std::cout << "Simulated leaked byte: 0x" << std::hex << leaked_byte << std::endl;
	.loc 1 116 54 discriminator 1
	adrp	x1, __ZSt3hexRSt8ios_base@GOTPAGE	;,
	ldr	x1, [x1, __ZSt3hexRSt8ios_base@GOTPAGEOFF]	;,
	bl	__ZNSolsEPFRSt8ios_baseS0_E		;
; 1.cpp:116:     std::cout << "Simulated leaked byte: 0x" << std::hex << leaked_byte << std::endl;
	.loc 1 116 61 discriminator 2
	ldr	w1, [x29, 52]	;, leaked_byte
	bl	__ZNSolsEi		;
; 1.cpp:116:     std::cout << "Simulated leaked byte: 0x" << std::hex << leaked_byte << std::endl;
	.loc 1 116 81 discriminator 3
	adrp	x1, __ZSt4endlIcSt11char_traitsIcEERSt13basic_ostreamIT_T0_ES6_@GOTPAGE	;,
	ldr	x1, [x1, __ZSt4endlIcSt11char_traitsIcEERSt13basic_ostreamIT_T0_ES6_@GOTPAGEOFF]	;,
	bl	__ZNSolsEPFRSoS_E		;
; 1.cpp:117:     std::cout << "Expected secret byte: 0x" << std::hex << (int)*secret_location_simulated << std::endl;
	.loc 1 117 18
	adrp	x0, lC5@PAGE	; tmp162,
	add	x1, x0, lC5@PAGEOFF;	;, tmp162,
	adrp	x0, __ZSt4cout@GOTPAGE	;,
	ldr	x0, [x0, __ZSt4cout@GOTPAGEOFF]	;,
	bl	__ZStlsISt11char_traitsIcEERSt13basic_ostreamIcT_ES5_PKc		;
; 1.cpp:117:     std::cout << "Expected secret byte: 0x" << std::hex << (int)*secret_location_simulated << std::endl;
	.loc 1 117 53 discriminator 1
	adrp	x1, __ZSt3hexRSt8ios_base@GOTPAGE	;,
	ldr	x1, [x1, __ZSt3hexRSt8ios_base@GOTPAGEOFF]	;,
	bl	__ZNSolsEPFRSt8ios_baseS0_E		;
	mov	x2, x0	; _15,
; 1.cpp:117:     std::cout << "Expected secret byte: 0x" << std::hex << (int)*secret_location_simulated << std::endl;
	.loc 1 117 65 discriminator 2
	ldr	x0, [x29, 40]	; tmp163, secret_location_simulated
	ldrb	w0, [x0]	; _16, *secret_location_simulated_33
; 1.cpp:117:     std::cout << "Expected secret byte: 0x" << std::hex << (int)*secret_location_simulated << std::endl;
	.loc 1 117 66 discriminator 2
	mov	w1, w0	;, _17
	mov	x0, x2	;, _15
	bl	__ZNSolsEi		;
; 1.cpp:117:     std::cout << "Expected secret byte: 0x" << std::hex << (int)*secret_location_simulated << std::endl;
	.loc 1 117 100 discriminator 3
	adrp	x1, __ZSt4endlIcSt11char_traitsIcEERSt13basic_ostreamIT_T0_ES6_@GOTPAGE	;,
	ldr	x1, [x1, __ZSt4endlIcSt11char_traitsIcEERSt13basic_ostreamIT_T0_ES6_@GOTPAGEOFF]	;,
	bl	__ZNSolsEPFRSoS_E		;
; 1.cpp:119:     return 0;
	.loc 1 119 12
	mov	w0, 0	; _67,
; 1.cpp:120: }
	.loc 1 120 1
	ldp	x29, x30, [sp], 80	;,,,
LCFI32:
	ret	
LFE2761:
	.align	2
	.globl __ZNKSt6chrono10time_pointINS_3_V212system_clockENS_8durationIxSt5ratioILl1ELl1000000000EEEEE16time_since_epochEv
	.weak_definition __ZNKSt6chrono10time_pointINS_3_V212system_clockENS_8durationIxSt5ratioILl1ELl1000000000EEEEE16time_since_epochEv
__ZNKSt6chrono10time_pointINS_3_V212system_clockENS_8durationIxSt5ratioILl1ELl1000000000EEEEE16time_since_epochEv:
LFB2978:
	.loc 3 953 2
	sub	sp, sp, #16	;,,
LCFI33:
	str	x0, [sp, 8]	; this, this
; /opt/homebrew/Cellar/gcc/15.1.0/include/c++/15/bits/chrono.h:954: 	{ return __d; }
	.loc 3 954 11
	ldr	x0, [sp, 8]	; tmp103, this
	ldr	x0, [x0]	; D.54953, this_2(D)->__d
; /opt/homebrew/Cellar/gcc/15.1.0/include/c++/15/bits/chrono.h:954: 	{ return __d; }
	.loc 3 954 16
	add	sp, sp, 16	;,,
LCFI34:
	ret	
LFE2978:
	.align	2
	.globl __ZNSt6chronomiINS_3_V212system_clockENS_8durationIxSt5ratioILl1ELl1000000000EEEES6_EENSt11common_typeIJT0_T1_EE4typeERKNS_10time_pointIT_S8_EERKNSC_ISD_S9_EE
	.weak_definition __ZNSt6chronomiINS_3_V212system_clockENS_8durationIxSt5ratioILl1ELl1000000000EEEES6_EENSt11common_typeIJT0_T1_EE4typeERKNS_10time_pointIT_S8_EERKNSC_ISD_S9_EE
__ZNSt6chronomiINS_3_V212system_clockENS_8durationIxSt5ratioILl1ELl1000000000EEEES6_EENSt11common_typeIJT0_T1_EE4typeERKNS_10time_pointIT_S8_EERKNSC_ISD_S9_EE:
LFB2989:
	.loc 3 1145 7
	stp	x29, x30, [sp, -48]!	;,,,
LCFI35:
	mov	x29, sp	;,
LCFI36:
	str	x0, [x29, 24]	; __lhs, __lhs
	str	x1, [x29, 16]	; __rhs, __rhs
; /opt/homebrew/Cellar/gcc/15.1.0/include/c++/15/bits/chrono.h:1147:       { return __lhs.time_since_epoch() - __rhs.time_since_epoch(); }
	.loc 3 1147 38
	ldr	x0, [x29, 24]	;, __lhs
	bl	__ZNKSt6chrono10time_pointINS_3_V212system_clockENS_8durationIxSt5ratioILl1ELl1000000000EEEEE16time_since_epochEv		;
	str	x0, [x29, 32]	; tmp103, D.53787
; /opt/homebrew/Cellar/gcc/15.1.0/include/c++/15/bits/chrono.h:1147:       { return __lhs.time_since_epoch() - __rhs.time_since_epoch(); }
	.loc 3 1147 65 discriminator 1
	ldr	x0, [x29, 16]	;, __rhs
	bl	__ZNKSt6chrono10time_pointINS_3_V212system_clockENS_8durationIxSt5ratioILl1ELl1000000000EEEEE16time_since_epochEv		;
	str	x0, [x29, 40]	; tmp104, D.53788
; /opt/homebrew/Cellar/gcc/15.1.0/include/c++/15/bits/chrono.h:1147:       { return __lhs.time_since_epoch() - __rhs.time_since_epoch(); }
	.loc 3 1147 41 discriminator 2
	add	x1, x29, 40	; tmp105,,
	add	x0, x29, 32	; tmp106,,
	bl	__ZNSt6chronomiIxSt5ratioILl1ELl1000000000EExS2_EENSt11common_typeIJNS_8durationIT_T0_EENS4_IT1_T2_EEEE4typeERKS7_RKSA_		;
; /opt/homebrew/Cellar/gcc/15.1.0/include/c++/15/bits/chrono.h:1147:       { return __lhs.time_since_epoch() - __rhs.time_since_epoch(); }
	.loc 3 1147 69
	ldp	x29, x30, [sp], 48	;,,,
LCFI37:
	ret	
LFE2989:
	.align	2
	.globl __ZNSt6chrono13duration_castINS_8durationIxSt5ratioILl1ELl1000000000EEEExS3_EENSt9enable_ifIXsrNS_13__is_durationIT_EE5valueES7_E4typeERKNS1_IT0_T1_EE
	.weak_definition __ZNSt6chrono13duration_castINS_8durationIxSt5ratioILl1ELl1000000000EEEExS3_EENSt9enable_ifIXsrNS_13__is_durationIT_EE5valueES7_E4typeERKNS1_IT0_T1_EE
__ZNSt6chrono13duration_castINS_8durationIxSt5ratioILl1ELl1000000000EEEExS3_EENSt9enable_ifIXsrNS_13__is_durationIT_EE5valueES7_E4typeERKNS1_IT0_T1_EE:
LFB2990:
	.loc 3 279 7
	stp	x29, x30, [sp, -32]!	;,,,
LCFI38:
	mov	x29, sp	;,
LCFI39:
	str	x0, [x29, 24]	; __d, __d
; /opt/homebrew/Cellar/gcc/15.1.0/include/c++/15/bits/chrono.h:293: 	  return __dc::__cast(__d);
	.loc 3 293 23
	ldr	x0, [x29, 24]	;, __d
	bl	__ZNSt6chrono20__duration_cast_implINS_8durationIxSt5ratioILl1ELl1000000000EEEES2_ILl1ELl1EExLb1ELb1EE6__castIxS3_EES4_RKNS1_IT_T0_EE		;
; /opt/homebrew/Cellar/gcc/15.1.0/include/c++/15/bits/chrono.h:297:       }
	.loc 3 297 7
	ldp	x29, x30, [sp], 32	;,,,
LCFI40:
	ret	
LFE2990:
	.align	2
	.globl __ZNSt6chronomiIxSt5ratioILl1ELl1000000000EExS2_EENSt11common_typeIJNS_8durationIT_T0_EENS4_IT1_T2_EEEE4typeERKS7_RKSA_
	.weak_definition __ZNSt6chronomiIxSt5ratioILl1ELl1000000000EExS2_EENSt11common_typeIJNS_8durationIT_T0_EENS4_IT1_T2_EEEE4typeERKS7_RKSA_
__ZNSt6chronomiIxSt5ratioILl1ELl1000000000EExS2_EENSt11common_typeIJNS_8durationIT_T0_EENS4_IT1_T2_EEEE4typeERKS7_RKSA_:
LFB3072:
	.loc 3 714 7
	stp	x29, x30, [sp, -80]!	;,,,
LCFI41:
	mov	x29, sp	;,
LCFI42:
	str	x19, [sp, 16]	;,
LCFI43:
	str	x0, [x29, 40]	; __lhs, __lhs
	str	x1, [x29, 32]	; __rhs, __rhs
; /opt/homebrew/Cellar/gcc/15.1.0/include/c++/15/bits/chrono.h:720: 	return __cd(__cd(__lhs).count() - __cd(__rhs).count());
	.loc 3 720 14
	ldr	x0, [x29, 40]	; tmp106, __lhs
	ldr	x0, [x0]	; tmp107, *__lhs_5(D)
	str	x0, [x29, 64]	; tmp107, D.54246
; /opt/homebrew/Cellar/gcc/15.1.0/include/c++/15/bits/chrono.h:720: 	return __cd(__cd(__lhs).count() - __cd(__rhs).count());
	.loc 3 720 31
	add	x0, x29, 64	; tmp108,,
	bl	__ZNKSt6chrono8durationIxSt5ratioILl1ELl1000000000EEE5countEv		;
	mov	x19, x0	; _1,
; /opt/homebrew/Cellar/gcc/15.1.0/include/c++/15/bits/chrono.h:720: 	return __cd(__cd(__lhs).count() - __cd(__rhs).count());
	.loc 3 720 36 discriminator 1
	ldr	x0, [x29, 32]	; tmp109, __rhs
	ldr	x0, [x0]	; tmp110, *__rhs_8(D)
	str	x0, [x29, 72]	; tmp110, D.54247
; /opt/homebrew/Cellar/gcc/15.1.0/include/c++/15/bits/chrono.h:720: 	return __cd(__cd(__lhs).count() - __cd(__rhs).count());
	.loc 3 720 53 discriminator 1
	add	x0, x29, 72	; tmp111,,
	bl	__ZNKSt6chrono8durationIxSt5ratioILl1ELl1000000000EEE5countEv		;
; /opt/homebrew/Cellar/gcc/15.1.0/include/c++/15/bits/chrono.h:720: 	return __cd(__cd(__lhs).count() - __cd(__rhs).count());
	.loc 3 720 34 discriminator 2
	sub	x0, x19, x0	; _3, _1, _2
	str	x0, [x29, 56]	; _3, D.54248
; /opt/homebrew/Cellar/gcc/15.1.0/include/c++/15/bits/chrono.h:720: 	return __cd(__cd(__lhs).count() - __cd(__rhs).count());
	.loc 3 720 9 discriminator 2
	add	x1, x29, 56	; tmp112,,
	add	x0, x29, 48	; tmp113,,
	bl	__ZNSt6chrono8durationIxSt5ratioILl1ELl1000000000EEEC1IxvEERKT_		;
; /opt/homebrew/Cellar/gcc/15.1.0/include/c++/15/bits/chrono.h:720: 	return __cd(__cd(__lhs).count() - __cd(__rhs).count());
	.loc 3 720 55 discriminator 3
	ldr	x0, [x29, 48]	; D.54955, D.54249
; /opt/homebrew/Cellar/gcc/15.1.0/include/c++/15/bits/chrono.h:721:       }
	.loc 3 721 7
	ldr	x19, [sp, 16]	;,
	ldp	x29, x30, [sp], 80	;,,,
LCFI44:
	ret	
LFE3072:
	.align	2
	.globl __ZNSt6chrono20__duration_cast_implINS_8durationIxSt5ratioILl1ELl1000000000EEEES2_ILl1ELl1EExLb1ELb1EE6__castIxS3_EES4_RKNS1_IT_T0_EE
	.weak_definition __ZNSt6chrono20__duration_cast_implINS_8durationIxSt5ratioILl1ELl1000000000EEEES2_ILl1ELl1EExLb1ELb1EE6__castIxS3_EES4_RKNS1_IT_T0_EE
__ZNSt6chrono20__duration_cast_implINS_8durationIxSt5ratioILl1ELl1000000000EEEES2_ILl1ELl1EExLb1ELb1EE6__castIxS3_EES4_RKNS1_IT_T0_EE:
LFB3073:
	.loc 3 202 4
	stp	x29, x30, [sp, -48]!	;,,,
LCFI45:
	mov	x29, sp	;,
LCFI46:
	str	x0, [x29, 24]	; __d, __d
; /opt/homebrew/Cellar/gcc/15.1.0/include/c++/15/bits/chrono.h:205: 	    return _ToDur(static_cast<__to_rep>(__d.count()));
	.loc 3 205 51
	ldr	x0, [x29, 24]	;, __d
	bl	__ZNKSt6chrono8durationIxSt5ratioILl1ELl1000000000EEE5countEv		;
; /opt/homebrew/Cellar/gcc/15.1.0/include/c++/15/bits/chrono.h:205: 	    return _ToDur(static_cast<__to_rep>(__d.count()));
	.loc 3 205 20 discriminator 1
	str	x0, [x29, 40]	; _1, D.54264
; /opt/homebrew/Cellar/gcc/15.1.0/include/c++/15/bits/chrono.h:205: 	    return _ToDur(static_cast<__to_rep>(__d.count()));
	.loc 3 205 13 discriminator 1
	add	x1, x29, 40	; tmp104,,
	add	x0, x29, 32	; tmp105,,
	bl	__ZNSt6chrono8durationIxSt5ratioILl1ELl1000000000EEEC1IxvEERKT_		;
; /opt/homebrew/Cellar/gcc/15.1.0/include/c++/15/bits/chrono.h:205: 	    return _ToDur(static_cast<__to_rep>(__d.count()));
	.loc 3 205 54 discriminator 2
	ldr	x0, [x29, 32]	; D.54963, D.54265
; /opt/homebrew/Cellar/gcc/15.1.0/include/c++/15/bits/chrono.h:206: 	  }
	.loc 3 206 4
	ldp	x29, x30, [sp], 48	;,,,
LCFI47:
	ret	
LFE3073:
	.section	__TEXT,__StaticInit,regular,pure_instructions
	.align	2
__Z41__static_initialization_and_destruction_0v:
LFB3172:
	.loc 1 120 1
	stp	x29, x30, [sp, -16]!	;,,,
LCFI48:
	mov	x29, sp	;,
LCFI49:
; /opt/homebrew/Cellar/gcc/15.1.0/include/c++/15/iostream:82:   static ios_base::Init __ioinit;
	.file 4 "/opt/homebrew/Cellar/gcc/15.1.0/include/c++/15/iostream"
	.loc 4 82 25
	adrp	x0, __ZStL8__ioinit@PAGE	; tmp101,
	add	x0, x0, __ZStL8__ioinit@PAGEOFF;	;, tmp101,
	bl	__ZNSt8ios_base4InitC1Ev		;
; /opt/homebrew/Cellar/gcc/15.1.0/include/c++/15/iostream:82:   static ios_base::Init __ioinit;
	.loc 4 82 25 is_stmt 0 discriminator 1
	adrp	x0, ___dso_handle@PAGE	; tmp102,
	add	x2, x0, ___dso_handle@PAGEOFF;	;, tmp102,
	adrp	x0, __ZStL8__ioinit@PAGE	; tmp103,
	add	x1, x0, __ZStL8__ioinit@PAGEOFF;	;, tmp103,
	adrp	x0, __ZNSt8ios_base4InitD1Ev@GOTPAGE	;,
	ldr	x0, [x0, __ZNSt8ios_base4InitD1Ev@GOTPAGEOFF]	;,
	bl	___cxa_atexit		;
; 1.cpp:120: }
	.loc 1 120 1 is_stmt 1
	nop	
	ldp	x29, x30, [sp], 16	;,,,
LCFI50:
	ret	
LFE3172:
	.align	2
__GLOBAL__sub_I_1.cpp:
LFB3173:
	.loc 1 120 1
	stp	x29, x30, [sp, -16]!	;,,,
LCFI51:
	mov	x29, sp	;,
LCFI52:
; 1.cpp:120: }
	.loc 1 120 1
	bl	__Z41__static_initialization_and_destruction_0v		;
	ldp	x29, x30, [sp], 16	;,,,
LCFI53:
	ret	
LFE3173:
	.section __DWARF,__debug_frame,regular,debug
Lsection__debug_frame:
Lframe0:
	.set L$set$0,LECIE0-LSCIE0
	.long L$set$0
LSCIE0:
	.long	0xffffffff
	.byte	0x3
	.ascii "\0"
	.uleb128 0x1
	.sleb128 -8
	.uleb128 0x1e
	.byte	0xc
	.uleb128 0x1f
	.uleb128 0
	.align	3
LECIE0:
LSFDE0:
	.set L$set$1,LEFDE0-LASFDE0
	.long L$set$1
LASFDE0:
	.set L$set$2,Lframe0-Lsection__debug_frame
	.long L$set$2
	.quad	LFB1167
	.set L$set$3,LFE1167-LFB1167
	.quad L$set$3
	.byte	0x4
	.set L$set$4,LCFI0-LFB1167
	.long L$set$4
	.byte	0xe
	.uleb128 0x10
	.byte	0x4
	.set L$set$5,LCFI1-LCFI0
	.long L$set$5
	.byte	0xe
	.uleb128 0
	.align	3
LEFDE0:
LSFDE2:
	.set L$set$6,LEFDE2-LASFDE2
	.long L$set$6
LASFDE2:
	.set L$set$7,Lframe0-Lsection__debug_frame
	.long L$set$7
	.quad	LFB1168
	.set L$set$8,LFE1168-LFB1168
	.quad L$set$8
	.byte	0x4
	.set L$set$9,LCFI2-LFB1168
	.long L$set$9
	.byte	0xe
	.uleb128 0x10
	.byte	0x4
	.set L$set$10,LCFI3-LCFI2
	.long L$set$10
	.byte	0xe
	.uleb128 0
	.align	3
LEFDE2:
LSFDE4:
	.set L$set$11,LEFDE4-LASFDE4
	.long L$set$11
LASFDE4:
	.set L$set$12,Lframe0-Lsection__debug_frame
	.long L$set$12
	.quad	LFB1170
	.set L$set$13,LFE1170-LFB1170
	.quad L$set$13
	.byte	0x4
	.set L$set$14,LCFI4-LFB1170
	.long L$set$14
	.byte	0xe
	.uleb128 0x10
	.byte	0x4
	.set L$set$15,LCFI5-LCFI4
	.long L$set$15
	.byte	0xe
	.uleb128 0
	.align	3
LEFDE4:
LSFDE6:
	.set L$set$16,LEFDE6-LASFDE6
	.long L$set$16
LASFDE6:
	.set L$set$17,Lframe0-Lsection__debug_frame
	.long L$set$17
	.quad	LFB1171
	.set L$set$18,LFE1171-LFB1171
	.quad L$set$18
	.byte	0x4
	.set L$set$19,LCFI6-LFB1171
	.long L$set$19
	.byte	0xe
	.uleb128 0x20
	.byte	0x9d
	.uleb128 0x4
	.byte	0x9e
	.uleb128 0x3
	.byte	0x4
	.set L$set$20,LCFI7-LCFI6
	.long L$set$20
	.byte	0xd
	.uleb128 0x1d
	.byte	0x4
	.set L$set$21,LCFI8-LCFI7
	.long L$set$21
	.byte	0xde
	.byte	0xdd
	.byte	0xc
	.uleb128 0x1f
	.uleb128 0
	.align	3
LEFDE6:
LSFDE8:
	.set L$set$22,LEFDE8-LASFDE8
	.long L$set$22
LASFDE8:
	.set L$set$23,Lframe0-Lsection__debug_frame
	.long L$set$23
	.quad	LFB1172
	.set L$set$24,LFE1172-LFB1172
	.quad L$set$24
	.byte	0x4
	.set L$set$25,LCFI9-LFB1172
	.long L$set$25
	.byte	0xe
	.uleb128 0x20
	.byte	0x9d
	.uleb128 0x4
	.byte	0x9e
	.uleb128 0x3
	.byte	0x4
	.set L$set$26,LCFI10-LCFI9
	.long L$set$26
	.byte	0xd
	.uleb128 0x1d
	.byte	0x4
	.set L$set$27,LCFI11-LCFI10
	.long L$set$27
	.byte	0xde
	.byte	0xdd
	.byte	0xc
	.uleb128 0x1f
	.uleb128 0
	.align	3
LEFDE8:
LSFDE10:
	.set L$set$28,LEFDE10-LASFDE10
	.long L$set$28
LASFDE10:
	.set L$set$29,Lframe0-Lsection__debug_frame
	.long L$set$29
	.quad	LFB1201
	.set L$set$30,LFE1201-LFB1201
	.quad L$set$30
	.byte	0x4
	.set L$set$31,LCFI12-LFB1201
	.long L$set$31
	.byte	0xe
	.uleb128 0x40
	.byte	0x9d
	.uleb128 0x8
	.byte	0x9e
	.uleb128 0x7
	.byte	0x4
	.set L$set$32,LCFI13-LCFI12
	.long L$set$32
	.byte	0xd
	.uleb128 0x1d
	.byte	0x4
	.set L$set$33,LCFI14-LCFI13
	.long L$set$33
	.byte	0x93
	.uleb128 0x6
	.byte	0x4
	.set L$set$34,LCFI15-LCFI14
	.long L$set$34
	.byte	0xde
	.byte	0xdd
	.byte	0xd3
	.byte	0xc
	.uleb128 0x1f
	.uleb128 0
	.align	3
LEFDE10:
LSFDE12:
	.set L$set$35,LEFDE12-LASFDE12
	.long L$set$35
LASFDE12:
	.set L$set$36,Lframe0-Lsection__debug_frame
	.long L$set$36
	.quad	LFB1229
	.set L$set$37,LFE1229-LFB1229
	.quad L$set$37
	.byte	0x4
	.set L$set$38,LCFI16-LFB1229
	.long L$set$38
	.byte	0xe
	.uleb128 0x20
	.byte	0x9d
	.uleb128 0x4
	.byte	0x9e
	.uleb128 0x3
	.byte	0x4
	.set L$set$39,LCFI17-LCFI16
	.long L$set$39
	.byte	0xd
	.uleb128 0x1d
	.byte	0x4
	.set L$set$40,LCFI18-LCFI17
	.long L$set$40
	.byte	0xde
	.byte	0xdd
	.byte	0xc
	.uleb128 0x1f
	.uleb128 0
	.align	3
LEFDE12:
LSFDE14:
	.set L$set$41,LEFDE14-LASFDE14
	.long L$set$41
LASFDE14:
	.set L$set$42,Lframe0-Lsection__debug_frame
	.long L$set$42
	.quad	LFB2248
	.set L$set$43,LFE2248-LFB2248
	.quad L$set$43
	.byte	0x4
	.set L$set$44,LCFI19-LFB2248
	.long L$set$44
	.byte	0xe
	.uleb128 0x10
	.byte	0x4
	.set L$set$45,LCFI20-LCFI19
	.long L$set$45
	.byte	0xe
	.uleb128 0
	.align	3
LEFDE14:
LSFDE16:
	.set L$set$46,LEFDE16-LASFDE16
	.long L$set$46
LASFDE16:
	.set L$set$47,Lframe0-Lsection__debug_frame
	.long L$set$47
	.quad	LFB2250
	.set L$set$48,LFE2250-LFB2250
	.quad L$set$48
	.byte	0x4
	.set L$set$49,LCFI21-LFB2250
	.long L$set$49
	.byte	0xe
	.uleb128 0x10
	.byte	0x4
	.set L$set$50,LCFI22-LCFI21
	.long L$set$50
	.byte	0xe
	.uleb128 0
	.align	3
LEFDE16:
LSFDE18:
	.set L$set$51,LEFDE18-LASFDE18
	.long L$set$51
LASFDE18:
	.set L$set$52,Lframe0-Lsection__debug_frame
	.long L$set$52
	.quad	LFB2758
	.set L$set$53,LFE2758-LFB2758
	.quad L$set$53
	.byte	0x4
	.set L$set$54,LCFI23-LFB2758
	.long L$set$54
	.byte	0xe
	.uleb128 0x20
	.byte	0x4
	.set L$set$55,LCFI24-LCFI23
	.long L$set$55
	.byte	0xe
	.uleb128 0
	.align	3
LEFDE18:
LSFDE20:
	.set L$set$56,LEFDE20-LASFDE20
	.long L$set$56
LASFDE20:
	.set L$set$57,Lframe0-Lsection__debug_frame
	.long L$set$57
	.quad	LFB2759
	.set L$set$58,LFE2759-LFB2759
	.quad L$set$58
	.byte	0x4
	.set L$set$59,LCFI25-LFB2759
	.long L$set$59
	.byte	0xe
	.uleb128 0x50
	.byte	0x9d
	.uleb128 0xa
	.byte	0x9e
	.uleb128 0x9
	.byte	0x4
	.set L$set$60,LCFI26-LCFI25
	.long L$set$60
	.byte	0xd
	.uleb128 0x1d
	.byte	0x4
	.set L$set$61,LCFI27-LCFI26
	.long L$set$61
	.byte	0xde
	.byte	0xdd
	.byte	0xc
	.uleb128 0x1f
	.uleb128 0
	.align	3
LEFDE20:
LSFDE22:
	.set L$set$62,LEFDE22-LASFDE22
	.long L$set$62
LASFDE22:
	.set L$set$63,Lframe0-Lsection__debug_frame
	.long L$set$63
	.quad	LFB2760
	.set L$set$64,LFE2760-LFB2760
	.quad L$set$64
	.byte	0x4
	.set L$set$65,LCFI28-LFB2760
	.long L$set$65
	.byte	0xe
	.uleb128 0x20
	.byte	0x4
	.set L$set$66,LCFI29-LCFI28
	.long L$set$66
	.byte	0xe
	.uleb128 0
	.align	3
LEFDE22:
LSFDE24:
	.set L$set$67,LEFDE24-LASFDE24
	.long L$set$67
LASFDE24:
	.set L$set$68,Lframe0-Lsection__debug_frame
	.long L$set$68
	.quad	LFB2761
	.set L$set$69,LFE2761-LFB2761
	.quad L$set$69
	.byte	0x4
	.set L$set$70,LCFI30-LFB2761
	.long L$set$70
	.byte	0xe
	.uleb128 0x50
	.byte	0x9d
	.uleb128 0xa
	.byte	0x9e
	.uleb128 0x9
	.byte	0x4
	.set L$set$71,LCFI31-LCFI30
	.long L$set$71
	.byte	0xd
	.uleb128 0x1d
	.byte	0x4
	.set L$set$72,LCFI32-LCFI31
	.long L$set$72
	.byte	0xde
	.byte	0xdd
	.byte	0xc
	.uleb128 0x1f
	.uleb128 0
	.align	3
LEFDE24:
LSFDE26:
	.set L$set$73,LEFDE26-LASFDE26
	.long L$set$73
LASFDE26:
	.set L$set$74,Lframe0-Lsection__debug_frame
	.long L$set$74
	.quad	LFB2978
	.set L$set$75,LFE2978-LFB2978
	.quad L$set$75
	.byte	0x4
	.set L$set$76,LCFI33-LFB2978
	.long L$set$76
	.byte	0xe
	.uleb128 0x10
	.byte	0x4
	.set L$set$77,LCFI34-LCFI33
	.long L$set$77
	.byte	0xe
	.uleb128 0
	.align	3
LEFDE26:
LSFDE28:
	.set L$set$78,LEFDE28-LASFDE28
	.long L$set$78
LASFDE28:
	.set L$set$79,Lframe0-Lsection__debug_frame
	.long L$set$79
	.quad	LFB2989
	.set L$set$80,LFE2989-LFB2989
	.quad L$set$80
	.byte	0x4
	.set L$set$81,LCFI35-LFB2989
	.long L$set$81
	.byte	0xe
	.uleb128 0x30
	.byte	0x9d
	.uleb128 0x6
	.byte	0x9e
	.uleb128 0x5
	.byte	0x4
	.set L$set$82,LCFI36-LCFI35
	.long L$set$82
	.byte	0xd
	.uleb128 0x1d
	.byte	0x4
	.set L$set$83,LCFI37-LCFI36
	.long L$set$83
	.byte	0xde
	.byte	0xdd
	.byte	0xc
	.uleb128 0x1f
	.uleb128 0
	.align	3
LEFDE28:
LSFDE30:
	.set L$set$84,LEFDE30-LASFDE30
	.long L$set$84
LASFDE30:
	.set L$set$85,Lframe0-Lsection__debug_frame
	.long L$set$85
	.quad	LFB2990
	.set L$set$86,LFE2990-LFB2990
	.quad L$set$86
	.byte	0x4
	.set L$set$87,LCFI38-LFB2990
	.long L$set$87
	.byte	0xe
	.uleb128 0x20
	.byte	0x9d
	.uleb128 0x4
	.byte	0x9e
	.uleb128 0x3
	.byte	0x4
	.set L$set$88,LCFI39-LCFI38
	.long L$set$88
	.byte	0xd
	.uleb128 0x1d
	.byte	0x4
	.set L$set$89,LCFI40-LCFI39
	.long L$set$89
	.byte	0xde
	.byte	0xdd
	.byte	0xc
	.uleb128 0x1f
	.uleb128 0
	.align	3
LEFDE30:
LSFDE32:
	.set L$set$90,LEFDE32-LASFDE32
	.long L$set$90
LASFDE32:
	.set L$set$91,Lframe0-Lsection__debug_frame
	.long L$set$91
	.quad	LFB3072
	.set L$set$92,LFE3072-LFB3072
	.quad L$set$92
	.byte	0x4
	.set L$set$93,LCFI41-LFB3072
	.long L$set$93
	.byte	0xe
	.uleb128 0x50
	.byte	0x9d
	.uleb128 0xa
	.byte	0x9e
	.uleb128 0x9
	.byte	0x4
	.set L$set$94,LCFI42-LCFI41
	.long L$set$94
	.byte	0xd
	.uleb128 0x1d
	.byte	0x4
	.set L$set$95,LCFI43-LCFI42
	.long L$set$95
	.byte	0x93
	.uleb128 0x8
	.byte	0x4
	.set L$set$96,LCFI44-LCFI43
	.long L$set$96
	.byte	0xde
	.byte	0xdd
	.byte	0xd3
	.byte	0xc
	.uleb128 0x1f
	.uleb128 0
	.align	3
LEFDE32:
LSFDE34:
	.set L$set$97,LEFDE34-LASFDE34
	.long L$set$97
LASFDE34:
	.set L$set$98,Lframe0-Lsection__debug_frame
	.long L$set$98
	.quad	LFB3073
	.set L$set$99,LFE3073-LFB3073
	.quad L$set$99
	.byte	0x4
	.set L$set$100,LCFI45-LFB3073
	.long L$set$100
	.byte	0xe
	.uleb128 0x30
	.byte	0x9d
	.uleb128 0x6
	.byte	0x9e
	.uleb128 0x5
	.byte	0x4
	.set L$set$101,LCFI46-LCFI45
	.long L$set$101
	.byte	0xd
	.uleb128 0x1d
	.byte	0x4
	.set L$set$102,LCFI47-LCFI46
	.long L$set$102
	.byte	0xde
	.byte	0xdd
	.byte	0xc
	.uleb128 0x1f
	.uleb128 0
	.align	3
LEFDE34:
LSFDE36:
	.set L$set$103,LEFDE36-LASFDE36
	.long L$set$103
LASFDE36:
	.set L$set$104,Lframe0-Lsection__debug_frame
	.long L$set$104
	.quad	LFB3172
	.set L$set$105,LFE3172-LFB3172
	.quad L$set$105
	.byte	0x4
	.set L$set$106,LCFI48-LFB3172
	.long L$set$106
	.byte	0xe
	.uleb128 0x10
	.byte	0x9d
	.uleb128 0x2
	.byte	0x9e
	.uleb128 0x1
	.byte	0x4
	.set L$set$107,LCFI49-LCFI48
	.long L$set$107
	.byte	0xd
	.uleb128 0x1d
	.byte	0x4
	.set L$set$108,LCFI50-LCFI49
	.long L$set$108
	.byte	0xde
	.byte	0xdd
	.byte	0xc
	.uleb128 0x1f
	.uleb128 0
	.align	3
LEFDE36:
LSFDE38:
	.set L$set$109,LEFDE38-LASFDE38
	.long L$set$109
LASFDE38:
	.set L$set$110,Lframe0-Lsection__debug_frame
	.long L$set$110
	.quad	LFB3173
	.set L$set$111,LFE3173-LFB3173
	.quad L$set$111
	.byte	0x4
	.set L$set$112,LCFI51-LFB3173
	.long L$set$112
	.byte	0xe
	.uleb128 0x10
	.byte	0x9d
	.uleb128 0x2
	.byte	0x9e
	.uleb128 0x1
	.byte	0x4
	.set L$set$113,LCFI52-LCFI51
	.long L$set$113
	.byte	0xd
	.uleb128 0x1d
	.byte	0x4
	.set L$set$114,LCFI53-LCFI52
	.long L$set$114
	.byte	0xde
	.byte	0xdd
	.byte	0xc
	.uleb128 0x1f
	.uleb128 0
	.align	3
LEFDE38:
	.section __TEXT,__eh_frame,coalesced,no_toc+strip_static_syms+live_support
EH_frame1:
	.set L$set$115,LECIE1-LSCIE1
	.long L$set$115
LSCIE1:
	.long	0
	.byte	0x3
	.ascii "zR\0"
	.uleb128 0x1
	.sleb128 -8
	.uleb128 0x1e
	.uleb128 0x1
	.byte	0x10
	.byte	0xc
	.uleb128 0x1f
	.uleb128 0
	.align	3
LECIE1:
LSFDE41:
	.set L$set$116,LEFDE41-LASFDE41
	.long L$set$116
LASFDE41:
	.long	LASFDE41-EH_frame1
	.quad	LFB1167-.
	.set L$set$117,LFE1167-LFB1167
	.quad L$set$117
	.uleb128 0
	.byte	0x4
	.set L$set$118,LCFI0-LFB1167
	.long L$set$118
	.byte	0xe
	.uleb128 0x10
	.byte	0x4
	.set L$set$119,LCFI1-LCFI0
	.long L$set$119
	.byte	0xe
	.uleb128 0
	.align	3
LEFDE41:
LSFDE43:
	.set L$set$120,LEFDE43-LASFDE43
	.long L$set$120
LASFDE43:
	.long	LASFDE43-EH_frame1
	.quad	LFB1168-.
	.set L$set$121,LFE1168-LFB1168
	.quad L$set$121
	.uleb128 0
	.byte	0x4
	.set L$set$122,LCFI2-LFB1168
	.long L$set$122
	.byte	0xe
	.uleb128 0x10
	.byte	0x4
	.set L$set$123,LCFI3-LCFI2
	.long L$set$123
	.byte	0xe
	.uleb128 0
	.align	3
LEFDE43:
LSFDE45:
	.set L$set$124,LEFDE45-LASFDE45
	.long L$set$124
LASFDE45:
	.long	LASFDE45-EH_frame1
	.quad	LFB1170-.
	.set L$set$125,LFE1170-LFB1170
	.quad L$set$125
	.uleb128 0
	.byte	0x4
	.set L$set$126,LCFI4-LFB1170
	.long L$set$126
	.byte	0xe
	.uleb128 0x10
	.byte	0x4
	.set L$set$127,LCFI5-LCFI4
	.long L$set$127
	.byte	0xe
	.uleb128 0
	.align	3
LEFDE45:
LSFDE47:
	.set L$set$128,LEFDE47-LASFDE47
	.long L$set$128
LASFDE47:
	.long	LASFDE47-EH_frame1
	.quad	LFB1171-.
	.set L$set$129,LFE1171-LFB1171
	.quad L$set$129
	.uleb128 0
	.byte	0x4
	.set L$set$130,LCFI6-LFB1171
	.long L$set$130
	.byte	0xe
	.uleb128 0x20
	.byte	0x9d
	.uleb128 0x4
	.byte	0x9e
	.uleb128 0x3
	.byte	0x4
	.set L$set$131,LCFI7-LCFI6
	.long L$set$131
	.byte	0xd
	.uleb128 0x1d
	.byte	0x4
	.set L$set$132,LCFI8-LCFI7
	.long L$set$132
	.byte	0xde
	.byte	0xdd
	.byte	0xc
	.uleb128 0x1f
	.uleb128 0
	.align	3
LEFDE47:
LSFDE49:
	.set L$set$133,LEFDE49-LASFDE49
	.long L$set$133
LASFDE49:
	.long	LASFDE49-EH_frame1
	.quad	LFB1172-.
	.set L$set$134,LFE1172-LFB1172
	.quad L$set$134
	.uleb128 0
	.byte	0x4
	.set L$set$135,LCFI9-LFB1172
	.long L$set$135
	.byte	0xe
	.uleb128 0x20
	.byte	0x9d
	.uleb128 0x4
	.byte	0x9e
	.uleb128 0x3
	.byte	0x4
	.set L$set$136,LCFI10-LCFI9
	.long L$set$136
	.byte	0xd
	.uleb128 0x1d
	.byte	0x4
	.set L$set$137,LCFI11-LCFI10
	.long L$set$137
	.byte	0xde
	.byte	0xdd
	.byte	0xc
	.uleb128 0x1f
	.uleb128 0
	.align	3
LEFDE49:
LSFDE51:
	.set L$set$138,LEFDE51-LASFDE51
	.long L$set$138
LASFDE51:
	.long	LASFDE51-EH_frame1
	.quad	LFB1201-.
	.set L$set$139,LFE1201-LFB1201
	.quad L$set$139
	.uleb128 0
	.byte	0x4
	.set L$set$140,LCFI12-LFB1201
	.long L$set$140
	.byte	0xe
	.uleb128 0x40
	.byte	0x9d
	.uleb128 0x8
	.byte	0x9e
	.uleb128 0x7
	.byte	0x4
	.set L$set$141,LCFI13-LCFI12
	.long L$set$141
	.byte	0xd
	.uleb128 0x1d
	.byte	0x4
	.set L$set$142,LCFI14-LCFI13
	.long L$set$142
	.byte	0x93
	.uleb128 0x6
	.byte	0x4
	.set L$set$143,LCFI15-LCFI14
	.long L$set$143
	.byte	0xde
	.byte	0xdd
	.byte	0xd3
	.byte	0xc
	.uleb128 0x1f
	.uleb128 0
	.align	3
LEFDE51:
LSFDE53:
	.set L$set$144,LEFDE53-LASFDE53
	.long L$set$144
LASFDE53:
	.long	LASFDE53-EH_frame1
	.quad	LFB1229-.
	.set L$set$145,LFE1229-LFB1229
	.quad L$set$145
	.uleb128 0
	.byte	0x4
	.set L$set$146,LCFI16-LFB1229
	.long L$set$146
	.byte	0xe
	.uleb128 0x20
	.byte	0x9d
	.uleb128 0x4
	.byte	0x9e
	.uleb128 0x3
	.byte	0x4
	.set L$set$147,LCFI17-LCFI16
	.long L$set$147
	.byte	0xd
	.uleb128 0x1d
	.byte	0x4
	.set L$set$148,LCFI18-LCFI17
	.long L$set$148
	.byte	0xde
	.byte	0xdd
	.byte	0xc
	.uleb128 0x1f
	.uleb128 0
	.align	3
LEFDE53:
LSFDE55:
	.set L$set$149,LEFDE55-LASFDE55
	.long L$set$149
LASFDE55:
	.long	LASFDE55-EH_frame1
	.quad	LFB2248-.
	.set L$set$150,LFE2248-LFB2248
	.quad L$set$150
	.uleb128 0
	.byte	0x4
	.set L$set$151,LCFI19-LFB2248
	.long L$set$151
	.byte	0xe
	.uleb128 0x10
	.byte	0x4
	.set L$set$152,LCFI20-LCFI19
	.long L$set$152
	.byte	0xe
	.uleb128 0
	.align	3
LEFDE55:
LSFDE57:
	.set L$set$153,LEFDE57-LASFDE57
	.long L$set$153
LASFDE57:
	.long	LASFDE57-EH_frame1
	.quad	LFB2250-.
	.set L$set$154,LFE2250-LFB2250
	.quad L$set$154
	.uleb128 0
	.byte	0x4
	.set L$set$155,LCFI21-LFB2250
	.long L$set$155
	.byte	0xe
	.uleb128 0x10
	.byte	0x4
	.set L$set$156,LCFI22-LCFI21
	.long L$set$156
	.byte	0xe
	.uleb128 0
	.align	3
LEFDE57:
LSFDE59:
	.set L$set$157,LEFDE59-LASFDE59
	.long L$set$157
LASFDE59:
	.long	LASFDE59-EH_frame1
	.quad	LFB2758-.
	.set L$set$158,LFE2758-LFB2758
	.quad L$set$158
	.uleb128 0
	.byte	0x4
	.set L$set$159,LCFI23-LFB2758
	.long L$set$159
	.byte	0xe
	.uleb128 0x20
	.byte	0x4
	.set L$set$160,LCFI24-LCFI23
	.long L$set$160
	.byte	0xe
	.uleb128 0
	.align	3
LEFDE59:
LSFDE61:
	.set L$set$161,LEFDE61-LASFDE61
	.long L$set$161
LASFDE61:
	.long	LASFDE61-EH_frame1
	.quad	LFB2759-.
	.set L$set$162,LFE2759-LFB2759
	.quad L$set$162
	.uleb128 0
	.byte	0x4
	.set L$set$163,LCFI25-LFB2759
	.long L$set$163
	.byte	0xe
	.uleb128 0x50
	.byte	0x9d
	.uleb128 0xa
	.byte	0x9e
	.uleb128 0x9
	.byte	0x4
	.set L$set$164,LCFI26-LCFI25
	.long L$set$164
	.byte	0xd
	.uleb128 0x1d
	.byte	0x4
	.set L$set$165,LCFI27-LCFI26
	.long L$set$165
	.byte	0xde
	.byte	0xdd
	.byte	0xc
	.uleb128 0x1f
	.uleb128 0
	.align	3
LEFDE61:
LSFDE63:
	.set L$set$166,LEFDE63-LASFDE63
	.long L$set$166
LASFDE63:
	.long	LASFDE63-EH_frame1
	.quad	LFB2760-.
	.set L$set$167,LFE2760-LFB2760
	.quad L$set$167
	.uleb128 0
	.byte	0x4
	.set L$set$168,LCFI28-LFB2760
	.long L$set$168
	.byte	0xe
	.uleb128 0x20
	.byte	0x4
	.set L$set$169,LCFI29-LCFI28
	.long L$set$169
	.byte	0xe
	.uleb128 0
	.align	3
LEFDE63:
LSFDE65:
	.set L$set$170,LEFDE65-LASFDE65
	.long L$set$170
LASFDE65:
	.long	LASFDE65-EH_frame1
	.quad	LFB2761-.
	.set L$set$171,LFE2761-LFB2761
	.quad L$set$171
	.uleb128 0
	.byte	0x4
	.set L$set$172,LCFI30-LFB2761
	.long L$set$172
	.byte	0xe
	.uleb128 0x50
	.byte	0x9d
	.uleb128 0xa
	.byte	0x9e
	.uleb128 0x9
	.byte	0x4
	.set L$set$173,LCFI31-LCFI30
	.long L$set$173
	.byte	0xd
	.uleb128 0x1d
	.byte	0x4
	.set L$set$174,LCFI32-LCFI31
	.long L$set$174
	.byte	0xde
	.byte	0xdd
	.byte	0xc
	.uleb128 0x1f
	.uleb128 0
	.align	3
LEFDE65:
LSFDE67:
	.set L$set$175,LEFDE67-LASFDE67
	.long L$set$175
LASFDE67:
	.long	LASFDE67-EH_frame1
	.quad	LFB2978-.
	.set L$set$176,LFE2978-LFB2978
	.quad L$set$176
	.uleb128 0
	.byte	0x4
	.set L$set$177,LCFI33-LFB2978
	.long L$set$177
	.byte	0xe
	.uleb128 0x10
	.byte	0x4
	.set L$set$178,LCFI34-LCFI33
	.long L$set$178
	.byte	0xe
	.uleb128 0
	.align	3
LEFDE67:
LSFDE69:
	.set L$set$179,LEFDE69-LASFDE69
	.long L$set$179
LASFDE69:
	.long	LASFDE69-EH_frame1
	.quad	LFB2989-.
	.set L$set$180,LFE2989-LFB2989
	.quad L$set$180
	.uleb128 0
	.byte	0x4
	.set L$set$181,LCFI35-LFB2989
	.long L$set$181
	.byte	0xe
	.uleb128 0x30
	.byte	0x9d
	.uleb128 0x6
	.byte	0x9e
	.uleb128 0x5
	.byte	0x4
	.set L$set$182,LCFI36-LCFI35
	.long L$set$182
	.byte	0xd
	.uleb128 0x1d
	.byte	0x4
	.set L$set$183,LCFI37-LCFI36
	.long L$set$183
	.byte	0xde
	.byte	0xdd
	.byte	0xc
	.uleb128 0x1f
	.uleb128 0
	.align	3
LEFDE69:
LSFDE71:
	.set L$set$184,LEFDE71-LASFDE71
	.long L$set$184
LASFDE71:
	.long	LASFDE71-EH_frame1
	.quad	LFB2990-.
	.set L$set$185,LFE2990-LFB2990
	.quad L$set$185
	.uleb128 0
	.byte	0x4
	.set L$set$186,LCFI38-LFB2990
	.long L$set$186
	.byte	0xe
	.uleb128 0x20
	.byte	0x9d
	.uleb128 0x4
	.byte	0x9e
	.uleb128 0x3
	.byte	0x4
	.set L$set$187,LCFI39-LCFI38
	.long L$set$187
	.byte	0xd
	.uleb128 0x1d
	.byte	0x4
	.set L$set$188,LCFI40-LCFI39
	.long L$set$188
	.byte	0xde
	.byte	0xdd
	.byte	0xc
	.uleb128 0x1f
	.uleb128 0
	.align	3
LEFDE71:
LSFDE73:
	.set L$set$189,LEFDE73-LASFDE73
	.long L$set$189
LASFDE73:
	.long	LASFDE73-EH_frame1
	.quad	LFB3072-.
	.set L$set$190,LFE3072-LFB3072
	.quad L$set$190
	.uleb128 0
	.byte	0x4
	.set L$set$191,LCFI41-LFB3072
	.long L$set$191
	.byte	0xe
	.uleb128 0x50
	.byte	0x9d
	.uleb128 0xa
	.byte	0x9e
	.uleb128 0x9
	.byte	0x4
	.set L$set$192,LCFI42-LCFI41
	.long L$set$192
	.byte	0xd
	.uleb128 0x1d
	.byte	0x4
	.set L$set$193,LCFI43-LCFI42
	.long L$set$193
	.byte	0x93
	.uleb128 0x8
	.byte	0x4
	.set L$set$194,LCFI44-LCFI43
	.long L$set$194
	.byte	0xde
	.byte	0xdd
	.byte	0xd3
	.byte	0xc
	.uleb128 0x1f
	.uleb128 0
	.align	3
LEFDE73:
LSFDE75:
	.set L$set$195,LEFDE75-LASFDE75
	.long L$set$195
LASFDE75:
	.long	LASFDE75-EH_frame1
	.quad	LFB3073-.
	.set L$set$196,LFE3073-LFB3073
	.quad L$set$196
	.uleb128 0
	.byte	0x4
	.set L$set$197,LCFI45-LFB3073
	.long L$set$197
	.byte	0xe
	.uleb128 0x30
	.byte	0x9d
	.uleb128 0x6
	.byte	0x9e
	.uleb128 0x5
	.byte	0x4
	.set L$set$198,LCFI46-LCFI45
	.long L$set$198
	.byte	0xd
	.uleb128 0x1d
	.byte	0x4
	.set L$set$199,LCFI47-LCFI46
	.long L$set$199
	.byte	0xde
	.byte	0xdd
	.byte	0xc
	.uleb128 0x1f
	.uleb128 0
	.align	3
LEFDE75:
LSFDE77:
	.set L$set$200,LEFDE77-LASFDE77
	.long L$set$200
LASFDE77:
	.long	LASFDE77-EH_frame1
	.quad	LFB3172-.
	.set L$set$201,LFE3172-LFB3172
	.quad L$set$201
	.uleb128 0
	.byte	0x4
	.set L$set$202,LCFI48-LFB3172
	.long L$set$202
	.byte	0xe
	.uleb128 0x10
	.byte	0x9d
	.uleb128 0x2
	.byte	0x9e
	.uleb128 0x1
	.byte	0x4
	.set L$set$203,LCFI49-LCFI48
	.long L$set$203
	.byte	0xd
	.uleb128 0x1d
	.byte	0x4
	.set L$set$204,LCFI50-LCFI49
	.long L$set$204
	.byte	0xde
	.byte	0xdd
	.byte	0xc
	.uleb128 0x1f
	.uleb128 0
	.align	3
LEFDE77:
LSFDE79:
	.set L$set$205,LEFDE79-LASFDE79
	.long L$set$205
LASFDE79:
	.long	LASFDE79-EH_frame1
	.quad	LFB3173-.
	.set L$set$206,LFE3173-LFB3173
	.quad L$set$206
	.uleb128 0
	.byte	0x4
	.set L$set$207,LCFI51-LFB3173
	.long L$set$207
	.byte	0xe
	.uleb128 0x10
	.byte	0x9d
	.uleb128 0x2
	.byte	0x9e
	.uleb128 0x1
	.byte	0x4
	.set L$set$208,LCFI52-LCFI51
	.long L$set$208
	.byte	0xd
	.uleb128 0x1d
	.byte	0x4
	.set L$set$209,LCFI53-LCFI52
	.long L$set$209
	.byte	0xde
	.byte	0xdd
	.byte	0xc
	.uleb128 0x1f
	.uleb128 0
	.align	3
LEFDE79:
	.text
Letext0:
	.file 5 "/opt/homebrew/Cellar/gcc/15.1.0/include/c++/15/cwchar"
	.file 6 "/opt/homebrew/Cellar/gcc/15.1.0/include/c++/15/type_traits"
	.file 7 "/opt/homebrew/Cellar/gcc/15.1.0/include/c++/15/aarch64-apple-darwin24/bits/c++config.h"
	.file 8 "/opt/homebrew/Cellar/gcc/15.1.0/include/c++/15/bits/exception_ptr.h"
	.file 9 "/opt/homebrew/Cellar/gcc/15.1.0/include/c++/15/bits/char_traits.h"
	.file 10 "/opt/homebrew/Cellar/gcc/15.1.0/include/c++/15/clocale"
	.file 11 "/opt/homebrew/Cellar/gcc/15.1.0/include/c++/15/cctype"
	.file 12 "/opt/homebrew/Cellar/gcc/15.1.0/include/c++/15/bits/utility.h"
	.file 13 "/opt/homebrew/Cellar/gcc/15.1.0/include/c++/15/bits/stl_pair.h"
	.file 14 "/opt/homebrew/Cellar/gcc/15.1.0/include/c++/15/debug/debug.h"
	.file 15 "/opt/homebrew/Cellar/gcc/15.1.0/include/c++/15/cstdlib"
	.file 16 "/opt/homebrew/Cellar/gcc/15.1.0/include/c++/15/cstdio"
	.file 17 "/opt/homebrew/Cellar/gcc/15.1.0/include/c++/15/system_error"
	.file 18 "/opt/homebrew/Cellar/gcc/15.1.0/include/c++/15/cwctype"
	.file 19 "/opt/homebrew/Cellar/gcc/15.1.0/include/c++/15/bits/ostream.tcc"
	.file 20 "/opt/homebrew/Cellar/gcc/15.1.0/include/c++/15/bits/ostream.h"
	.file 21 "/opt/homebrew/Cellar/gcc/15.1.0/include/c++/15/iosfwd"
	.file 22 "/opt/homebrew/Cellar/gcc/15.1.0/include/c++/15/cstdint"
	.file 23 "/opt/homebrew/Cellar/gcc/15.1.0/include/c++/15/ctime"
	.file 24 "/opt/homebrew/Cellar/gcc/15.1.0/include/c++/15/ratio"
	.file 25 "/opt/homebrew/Cellar/gcc/15.1.0/include/c++/15/bits/uses_allocator.h"
	.file 26 "/opt/homebrew/Cellar/gcc/15.1.0/include/c++/15/ostream"
	.file 27 "/opt/homebrew/Cellar/gcc/15.1.0/include/c++/15/ext/numeric_traits.h"
	.file 28 "/opt/homebrew/Cellar/gcc/15.1.0/include/c++/15/bits/predefined_ops.h"
	.file 29 "/Library/Developer/CommandLineTools/SDKs/MacOSX15.sdk/usr/include/arm/_types.h"
	.file 30 "/Library/Developer/CommandLineTools/SDKs/MacOSX15.sdk/usr/include/sys/_types.h"
	.file 31 "/Library/Developer/CommandLineTools/SDKs/MacOSX15.sdk/usr/include/_types.h"
	.file 32 "/Library/Developer/CommandLineTools/SDKs/MacOSX15.sdk/usr/include/sys/_types/_size_t.h"
	.file 33 "/Library/Developer/CommandLineTools/SDKs/MacOSX15.sdk/usr/include/sys/_types/_int8_t.h"
	.file 34 "/Library/Developer/CommandLineTools/SDKs/MacOSX15.sdk/usr/include/sys/_types/_int16_t.h"
	.file 35 "/Library/Developer/CommandLineTools/SDKs/MacOSX15.sdk/usr/include/sys/_types/_int32_t.h"
	.file 36 "/Library/Developer/CommandLineTools/SDKs/MacOSX15.sdk/usr/include/sys/_types/_int64_t.h"
	.file 37 "/Library/Developer/CommandLineTools/SDKs/MacOSX15.sdk/usr/include/sys/_types/_intptr_t.h"
	.file 38 "/Library/Developer/CommandLineTools/SDKs/MacOSX15.sdk/usr/include/sys/_types/_uintptr_t.h"
	.file 39 "/Library/Developer/CommandLineTools/SDKs/MacOSX15.sdk/usr/include/sys/_types/_mbstate_t.h"
	.file 40 "/opt/homebrew/Cellar/gcc/15.1.0/lib/gcc/current/gcc/aarch64-apple-darwin24/15/include-fixed/_stdio.h"
	.file 41 "/Library/Developer/CommandLineTools/SDKs/MacOSX15.sdk/usr/include/sys/_types/_clock_t.h"
	.file 42 "/Library/Developer/CommandLineTools/SDKs/MacOSX15.sdk/usr/include/sys/_types/_time_t.h"
	.file 43 "/Library/Developer/CommandLineTools/SDKs/MacOSX15.sdk/usr/include/_time.h"
	.file 44 "/Library/Developer/CommandLineTools/SDKs/MacOSX15.sdk/usr/include/sys/_types/_wint_t.h"
	.file 45 "/Library/Developer/CommandLineTools/SDKs/MacOSX15.sdk/usr/include/_types/_wctype_t.h"
	.file 46 "/Library/Developer/CommandLineTools/SDKs/MacOSX15.sdk/usr/include/_wchar.h"
	.file 47 "/Library/Developer/CommandLineTools/SDKs/MacOSX15.sdk/usr/include/_locale.h"
	.file 48 "/Library/Developer/CommandLineTools/SDKs/MacOSX15.sdk/usr/include/locale.h"
	.file 49 "/Library/Developer/CommandLineTools/SDKs/MacOSX15.sdk/usr/include/_ctype.h"
	.file 50 "/opt/homebrew/Cellar/gcc/15.1.0/include/c++/15/aarch64-apple-darwin24/bits/atomic_word.h"
	.file 51 "/opt/homebrew/Cellar/gcc/15.1.0/include/c++/15/bits/stl_iterator.h"
	.file 52 "/Library/Developer/CommandLineTools/SDKs/MacOSX15.sdk/usr/include/_types/_uint8_t.h"
	.file 53 "/Library/Developer/CommandLineTools/SDKs/MacOSX15.sdk/usr/include/_types/_uint16_t.h"
	.file 54 "/Library/Developer/CommandLineTools/SDKs/MacOSX15.sdk/usr/include/_types/_uint32_t.h"
	.file 55 "/Library/Developer/CommandLineTools/SDKs/MacOSX15.sdk/usr/include/_types/_uint64_t.h"
	.file 56 "/Library/Developer/CommandLineTools/SDKs/MacOSX15.sdk/usr/include/stdint.h"
	.file 57 "/Library/Developer/CommandLineTools/SDKs/MacOSX15.sdk/usr/include/_types/_intmax_t.h"
	.file 58 "/Library/Developer/CommandLineTools/SDKs/MacOSX15.sdk/usr/include/_types/_uintmax_t.h"
	.file 59 "/Library/Developer/CommandLineTools/SDKs/MacOSX15.sdk/usr/include/_stdlib.h"
	.file 60 "/Library/Developer/CommandLineTools/SDKs/MacOSX15.sdk/usr/include/_types/_wctrans_t.h"
	.file 61 "/Library/Developer/CommandLineTools/SDKs/MacOSX15.sdk/usr/include/___wctype.h"
	.file 62 "/Library/Developer/CommandLineTools/SDKs/MacOSX15.sdk/usr/include/_wctype.h"
	.section __DWARF,__debug_info,regular,debug
Lsection__debug_info:
Ldebug_info0:
	.long	0x6508
	.short	0x4
	.set L$set$210,Ldebug_abbrev0-Lsection__debug_abbrev
	.long L$set$210
	.byte	0x8
	.uleb128 0x5c
	.ascii "GNU C++11 15.1.0 -fPIC -mmacosx-version-min=15.0.0 -mcpu=apple-m1 -mlittle-endian -mabi=lp64 -g -std=c++11\0"
	.byte	0x4
	.ascii "1.cpp\0"
	.ascii "/Users/ritvikgupta/SpecExec\0"
	.set L$set$211,Ldebug_ranges0+0-Lsection__debug_ranges
	.long L$set$211
	.quad	0
	.set L$set$212,Ldebug_line0-Lsection__debug_line
	.long L$set$212
	.uleb128 0x27
	.ascii "std\0"
	.byte	0x7
	.short	0x150
	.byte	0xb
	.long	0x3037
	.uleb128 0x2f
	.ascii "__cxx11\0"
	.byte	0x7
	.short	0x173
	.byte	0x41
	.uleb128 0x30
	.byte	0x7
	.short	0x173
	.byte	0x41
	.long	0xb7
	.uleb128 0x2
	.byte	0x5
	.byte	0x42
	.byte	0xb
	.long	0x370d
	.uleb128 0x2
	.byte	0x5
	.byte	0x8f
	.byte	0xb
	.long	0x3a5a
	.uleb128 0x2
	.byte	0x5
	.byte	0x91
	.byte	0xb
	.long	0x3a86
	.uleb128 0x2
	.byte	0x5
	.byte	0x92
	.byte	0xb
	.long	0x3a9e
	.uleb128 0x2
	.byte	0x5
	.byte	0x93
	.byte	0xb
	.long	0x3ab7
	.uleb128 0x2
	.byte	0x5
	.byte	0x94
	.byte	0xb
	.long	0x3af0
	.uleb128 0x2
	.byte	0x5
	.byte	0x95
	.byte	0xb
	.long	0x3b0e
	.uleb128 0x2
	.byte	0x5
	.byte	0x96
	.byte	0xb
	.long	0x3b32
	.uleb128 0x2
	.byte	0x5
	.byte	0x97
	.byte	0xb
	.long	0x3b4f
	.uleb128 0x2
	.byte	0x5
	.byte	0x98
	.byte	0xb
	.long	0x3b70
	.uleb128 0x2
	.byte	0x5
	.byte	0x99
	.byte	0xb
	.long	0x3b90
	.uleb128 0x2
	.byte	0x5
	.byte	0x9a
	.byte	0xb
	.long	0x3ba8
	.uleb128 0x2
	.byte	0x5
	.byte	0x9b
	.byte	0xb
	.long	0x3bb9
	.uleb128 0x2
	.byte	0x5
	.byte	0x9c
	.byte	0xb
	.long	0x3be2
	.uleb128 0x2
	.byte	0x5
	.byte	0x9d
	.byte	0xb
	.long	0x3c0b
	.uleb128 0x2
	.byte	0x5
	.byte	0x9e
	.byte	0xb
	.long	0x3c2b
	.uleb128 0x2
	.byte	0x5
	.byte	0x9f
	.byte	0xb
	.long	0x3c56
	.uleb128 0x2
	.byte	0x5
	.byte	0xa0
	.byte	0xb
	.long	0x3c73
	.uleb128 0x2
	.byte	0x5
	.byte	0xa2
	.byte	0xb
	.long	0x3c8e
	.uleb128 0x2
	.byte	0x5
	.byte	0xa4
	.byte	0xb
	.long	0x3cb4
	.uleb128 0x2
	.byte	0x5
	.byte	0xa5
	.byte	0xb
	.long	0x3cd4
	.uleb128 0x2
	.byte	0x5
	.byte	0xa6
	.byte	0xb
	.long	0x3cf3
	.uleb128 0x2
	.byte	0x5
	.byte	0xa8
	.byte	0xb
	.long	0x3d19
	.uleb128 0x2
	.byte	0x5
	.byte	0xab
	.byte	0xb
	.long	0x3d3e
	.uleb128 0x2
	.byte	0x5
	.byte	0xae
	.byte	0xb
	.long	0x3d69
	.uleb128 0x2
	.byte	0x5
	.byte	0xb0
	.byte	0xb
	.long	0x3d8e
	.uleb128 0x2
	.byte	0x5
	.byte	0xb2
	.byte	0xb
	.long	0x3dae
	.uleb128 0x2
	.byte	0x5
	.byte	0xb4
	.byte	0xb
	.long	0x3dcd
	.uleb128 0x2
	.byte	0x5
	.byte	0xb5
	.byte	0xb
	.long	0x3df1
	.uleb128 0x2
	.byte	0x5
	.byte	0xb6
	.byte	0xb
	.long	0x3e0f
	.uleb128 0x2
	.byte	0x5
	.byte	0xb7
	.byte	0xb
	.long	0x3e2d
	.uleb128 0x2
	.byte	0x5
	.byte	0xb8
	.byte	0xb
	.long	0x3e4c
	.uleb128 0x2
	.byte	0x5
	.byte	0xb9
	.byte	0xb
	.long	0x3e6a
	.uleb128 0x2
	.byte	0x5
	.byte	0xba
	.byte	0xb
	.long	0x3e89
	.uleb128 0x2
	.byte	0x5
	.byte	0xbb
	.byte	0xb
	.long	0x3ec3
	.uleb128 0x2
	.byte	0x5
	.byte	0xbc
	.byte	0xb
	.long	0x3edc
	.uleb128 0x2
	.byte	0x5
	.byte	0xbd
	.byte	0xb
	.long	0x3f00
	.uleb128 0x2
	.byte	0x5
	.byte	0xbe
	.byte	0xb
	.long	0x3f24
	.uleb128 0x2
	.byte	0x5
	.byte	0xbf
	.byte	0xb
	.long	0x3f48
	.uleb128 0x2
	.byte	0x5
	.byte	0xc0
	.byte	0xb
	.long	0x3f79
	.uleb128 0x2
	.byte	0x5
	.byte	0xc1
	.byte	0xb
	.long	0x3f97
	.uleb128 0x2
	.byte	0x5
	.byte	0xc3
	.byte	0xb
	.long	0x3fc5
	.uleb128 0x2
	.byte	0x5
	.byte	0xc5
	.byte	0xb
	.long	0x3fec
	.uleb128 0x2
	.byte	0x5
	.byte	0xc6
	.byte	0xb
	.long	0x400f
	.uleb128 0x2
	.byte	0x5
	.byte	0xc7
	.byte	0xb
	.long	0x4032
	.uleb128 0x2
	.byte	0x5
	.byte	0xc8
	.byte	0xb
	.long	0x4056
	.uleb128 0x2
	.byte	0x5
	.byte	0xc9
	.byte	0xb
	.long	0x407a
	.uleb128 0x2
	.byte	0x5
	.byte	0xca
	.byte	0xb
	.long	0x4092
	.uleb128 0x2
	.byte	0x5
	.byte	0xcb
	.byte	0xb
	.long	0x40b6
	.uleb128 0x2
	.byte	0x5
	.byte	0xcc
	.byte	0xb
	.long	0x40da
	.uleb128 0x2
	.byte	0x5
	.byte	0xcd
	.byte	0xb
	.long	0x40ff
	.uleb128 0x2
	.byte	0x5
	.byte	0xce
	.byte	0xb
	.long	0x4123
	.uleb128 0x2
	.byte	0x5
	.byte	0xcf
	.byte	0xb
	.long	0x413e
	.uleb128 0x2
	.byte	0x5
	.byte	0xd0
	.byte	0xb
	.long	0x4158
	.uleb128 0x2
	.byte	0x5
	.byte	0xd1
	.byte	0xb
	.long	0x4176
	.uleb128 0x2
	.byte	0x5
	.byte	0xd2
	.byte	0xb
	.long	0x4195
	.uleb128 0x2
	.byte	0x5
	.byte	0xd3
	.byte	0xb
	.long	0x41b4
	.uleb128 0x2
	.byte	0x5
	.byte	0xd4
	.byte	0xb
	.long	0x41d2
	.uleb128 0xf
	.byte	0x5
	.short	0x10d
	.byte	0x16
	.long	0x41f6
	.uleb128 0xf
	.byte	0x5
	.short	0x10e
	.byte	0x16
	.long	0x4224
	.uleb128 0xf
	.byte	0x5
	.short	0x10f
	.byte	0x16
	.long	0x4248
	.uleb128 0xf
	.byte	0x5
	.short	0x11d
	.byte	0xe
	.long	0x3fc5
	.uleb128 0xf
	.byte	0x5
	.short	0x120
	.byte	0xe
	.long	0x3d19
	.uleb128 0xf
	.byte	0x5
	.short	0x123
	.byte	0xe
	.long	0x3d69
	.uleb128 0xf
	.byte	0x5
	.short	0x126
	.byte	0xe
	.long	0x3dae
	.uleb128 0xf
	.byte	0x5
	.short	0x12a
	.byte	0xe
	.long	0x41f6
	.uleb128 0xf
	.byte	0x5
	.short	0x12b
	.byte	0xe
	.long	0x4224
	.uleb128 0xf
	.byte	0x5
	.short	0x12c
	.byte	0xe
	.long	0x4248
	.uleb128 0x11
	.ascii "integral_constant<bool, true>\0"
	.byte	0x1
	.byte	0x6
	.byte	0x5c
	.byte	0xc
	.long	0x3be
	.uleb128 0x28
	.set L$set$213,LASF0-Lsection__debug_str
	.long L$set$213
	.byte	0x6
	.byte	0x5e
	.byte	0x1c
	.long	0x4296
	.uleb128 0x29
	.set L$set$214,LASF1-Lsection__debug_str
	.long L$set$214
	.byte	0x6
	.byte	0x5f
	.byte	0xd
	.long	0x428e
	.uleb128 0x20
	.ascii "operator std::integral_constant<bool, true>::value_type\0"
	.byte	0x6
	.byte	0x61
	.byte	0x11
	.ascii "_ZNKSt17integral_constantIbLb1EEcvbEv\0"
	.long	0x32a
	.long	0x3a4
	.long	0x3aa
	.uleb128 0x6
	.long	0x429b
	.byte	0
	.uleb128 0x10
	.ascii "_Tp\0"
	.long	0x428e
	.uleb128 0x19
	.ascii "__v\0"
	.long	0x428e
	.byte	0x1
	.byte	0
	.uleb128 0x8
	.long	0x2f7
	.uleb128 0x11
	.ascii "integral_constant<bool, false>\0"
	.byte	0x1
	.byte	0x6
	.byte	0x5c
	.byte	0xc
	.long	0x48c
	.uleb128 0x28
	.set L$set$215,LASF0-Lsection__debug_str
	.long L$set$215
	.byte	0x6
	.byte	0x5e
	.byte	0x1c
	.long	0x4296
	.uleb128 0x29
	.set L$set$216,LASF1-Lsection__debug_str
	.long L$set$216
	.byte	0x6
	.byte	0x5f
	.byte	0xd
	.long	0x428e
	.uleb128 0x20
	.ascii "operator std::integral_constant<bool, false>::value_type\0"
	.byte	0x6
	.byte	0x61
	.byte	0x11
	.ascii "_ZNKSt17integral_constantIbLb0EEcvbEv\0"
	.long	0x3f7
	.long	0x472
	.long	0x478
	.uleb128 0x6
	.long	0x42a1
	.byte	0
	.uleb128 0x10
	.ascii "_Tp\0"
	.long	0x428e
	.uleb128 0x19
	.ascii "__v\0"
	.long	0x428e
	.byte	0
	.byte	0
	.uleb128 0x8
	.long	0x3c3
	.uleb128 0x21
	.ascii "size_t\0"
	.byte	0x7
	.short	0x152
	.byte	0x1a
	.long	0x3551
	.uleb128 0x2f
	.ascii "__swappable_details\0"
	.byte	0x6
	.short	0xb92
	.byte	0xd
	.uleb128 0x40
	.ascii "__exception_ptr\0"
	.byte	0x8
	.byte	0x3d
	.byte	0xd
	.long	0x98c
	.uleb128 0x5d
	.set L$set$217,LASF2-Lsection__debug_str
	.long L$set$217
	.byte	0x8
	.byte	0x8
	.byte	0x61
	.byte	0xb
	.long	0x936
	.uleb128 0x4
	.ascii "_M_exception_object\0"
	.byte	0x8
	.byte	0x63
	.byte	0xd
	.long	0x3660
	.byte	0
	.uleb128 0x5e
	.set L$set$218,LASF2-Lsection__debug_str
	.long L$set$218
	.byte	0x8
	.byte	0x65
	.byte	0x10
	.ascii "_ZNSt15__exception_ptr13exception_ptrC4EPv\0"
	.long	0x537
	.long	0x542
	.uleb128 0x6
	.long	0x42bf
	.uleb128 0x1
	.long	0x3660
	.byte	0
	.uleb128 0x41
	.ascii "_M_addref\0"
	.byte	0x8
	.byte	0x67
	.byte	0xc
	.ascii "_ZNSt15__exception_ptr13exception_ptr9_M_addrefEv\0"
	.long	0x58a
	.long	0x590
	.uleb128 0x6
	.long	0x42bf
	.byte	0
	.uleb128 0x41
	.ascii "_M_release\0"
	.byte	0x8
	.byte	0x68
	.byte	0xc
	.ascii "_ZNSt15__exception_ptr13exception_ptr10_M_releaseEv\0"
	.long	0x5db
	.long	0x5e1
	.uleb128 0x6
	.long	0x42bf
	.byte	0
	.uleb128 0x20
	.ascii "_M_get\0"
	.byte	0x8
	.byte	0x6a
	.byte	0xd
	.ascii "_ZNKSt15__exception_ptr13exception_ptr6_M_getEv\0"
	.long	0x3660
	.long	0x628
	.long	0x62e
	.uleb128 0x6
	.long	0x42c5
	.byte	0
	.uleb128 0x2a
	.set L$set$219,LASF2-Lsection__debug_str
	.long L$set$219
	.byte	0x8
	.byte	0x72
	.byte	0x7
	.ascii "_ZNSt15__exception_ptr13exception_ptrC4Ev\0"
	.byte	0x1
	.long	0x669
	.long	0x66f
	.uleb128 0x6
	.long	0x42bf
	.byte	0
	.uleb128 0x2a
	.set L$set$220,LASF2-Lsection__debug_str
	.long L$set$220
	.byte	0x8
	.byte	0x74
	.byte	0x7
	.ascii "_ZNSt15__exception_ptr13exception_ptrC4ERKS0_\0"
	.byte	0x1
	.long	0x6ae
	.long	0x6b9
	.uleb128 0x6
	.long	0x42bf
	.uleb128 0x1
	.long	0x42cb
	.byte	0
	.uleb128 0x2a
	.set L$set$221,LASF2-Lsection__debug_str
	.long L$set$221
	.byte	0x8
	.byte	0x77
	.byte	0x7
	.ascii "_ZNSt15__exception_ptr13exception_ptrC4EDn\0"
	.byte	0x1
	.long	0x6f5
	.long	0x700
	.uleb128 0x6
	.long	0x42bf
	.uleb128 0x1
	.long	0x9f0
	.byte	0
	.uleb128 0x2a
	.set L$set$222,LASF2-Lsection__debug_str
	.long L$set$222
	.byte	0x8
	.byte	0x7b
	.byte	0x7
	.ascii "_ZNSt15__exception_ptr13exception_ptrC4EOS0_\0"
	.byte	0x1
	.long	0x73e
	.long	0x749
	.uleb128 0x6
	.long	0x42bf
	.uleb128 0x1
	.long	0x42d1
	.byte	0
	.uleb128 0x22
	.set L$set$223,LASF3-Lsection__debug_str
	.long L$set$223
	.byte	0x8
	.byte	0x88
	.byte	0x7
	.ascii "_ZNSt15__exception_ptr13exception_ptraSERKS0_\0"
	.long	0x42d7
	.byte	0x1
	.long	0x78c
	.long	0x797
	.uleb128 0x6
	.long	0x42bf
	.uleb128 0x1
	.long	0x42cb
	.byte	0
	.uleb128 0x22
	.set L$set$224,LASF3-Lsection__debug_str
	.long L$set$224
	.byte	0x8
	.byte	0x8c
	.byte	0x7
	.ascii "_ZNSt15__exception_ptr13exception_ptraSEOS0_\0"
	.long	0x42d7
	.byte	0x1
	.long	0x7d9
	.long	0x7e4
	.uleb128 0x6
	.long	0x42bf
	.uleb128 0x1
	.long	0x42d1
	.byte	0
	.uleb128 0x42
	.ascii "~exception_ptr\0"
	.byte	0x8
	.byte	0x93
	.byte	0x7
	.ascii "_ZNSt15__exception_ptr13exception_ptrD4Ev\0"
	.byte	0x1
	.long	0x82a
	.long	0x830
	.uleb128 0x6
	.long	0x42bf
	.byte	0
	.uleb128 0x42
	.ascii "swap\0"
	.byte	0x8
	.byte	0x96
	.byte	0x7
	.ascii "_ZNSt15__exception_ptr13exception_ptr4swapERS0_\0"
	.byte	0x1
	.long	0x872
	.long	0x87d
	.uleb128 0x6
	.long	0x42bf
	.uleb128 0x1
	.long	0x42d7
	.byte	0
	.uleb128 0x5f
	.ascii "operator bool\0"
	.byte	0x8
	.byte	0xa1
	.byte	0x10
	.ascii "_ZNKSt15__exception_ptr13exception_ptrcvbEv\0"
	.long	0x428e
	.byte	0x1
	.long	0x8c8
	.long	0x8ce
	.uleb128 0x6
	.long	0x42c5
	.byte	0
	.uleb128 0x60
	.ascii "__cxa_exception_type\0"
	.byte	0x8
	.byte	0xb6
	.byte	0x7
	.ascii "_ZNKSt15__exception_ptr13exception_ptr20__cxa_exception_typeEv\0"
	.long	0x42dd
	.byte	0x1
	.long	0x92f
	.uleb128 0x6
	.long	0x42c5
	.byte	0
	.byte	0
	.uleb128 0x8
	.long	0x4d2
	.uleb128 0x2
	.byte	0x8
	.byte	0x55
	.byte	0x10
	.long	0x994
	.uleb128 0x61
	.ascii "swap\0"
	.byte	0x8
	.byte	0xe5
	.byte	0x5
	.ascii "_ZNSt15__exception_ptr4swapERNS_13exception_ptrES1_\0"
	.uleb128 0x1
	.long	0x42d7
	.uleb128 0x1
	.long	0x42d7
	.byte	0
	.byte	0
	.uleb128 0x2
	.byte	0x8
	.byte	0x42
	.byte	0x1a
	.long	0x4d2
	.uleb128 0x62
	.ascii "rethrow_exception\0"
	.byte	0x8
	.byte	0x51
	.byte	0x8
	.ascii "_ZSt17rethrow_exceptionNSt15__exception_ptr13exception_ptrE\0"
	.long	0x9f0
	.uleb128 0x1
	.long	0x4d2
	.byte	0
	.uleb128 0x21
	.ascii "nullptr_t\0"
	.byte	0x7
	.short	0x156
	.byte	0x1d
	.long	0x427b
	.uleb128 0x63
	.ascii "type_info\0"
	.uleb128 0x8
	.long	0xa03
	.uleb128 0x2
	.byte	0x8
	.byte	0xf2
	.byte	0x1a
	.long	0x943
	.uleb128 0x2b
	.ascii "char_traits<char>\0"
	.byte	0x1
	.byte	0x9
	.short	0x14b
	.byte	0xc
	.long	0xe00
	.uleb128 0x64
	.ascii "assign\0"
	.byte	0x9
	.short	0x159
	.byte	0x7
	.ascii "_ZNSt11char_traitsIcE6assignERcRKc\0"
	.long	0xa75
	.uleb128 0x1
	.long	0x42e3
	.uleb128 0x1
	.long	0x42e9
	.byte	0
	.uleb128 0x21
	.ascii "char_type\0"
	.byte	0x9
	.short	0x14d
	.byte	0x21
	.long	0x356b
	.uleb128 0x8
	.long	0xa75
	.uleb128 0xc
	.ascii "eq\0"
	.byte	0x9
	.short	0x164
	.byte	0x7
	.ascii "_ZNSt11char_traitsIcE2eqERKcS2_\0"
	.long	0x428e
	.long	0xac8
	.uleb128 0x1
	.long	0x42e9
	.uleb128 0x1
	.long	0x42e9
	.byte	0
	.uleb128 0xc
	.ascii "lt\0"
	.byte	0x9
	.short	0x168
	.byte	0x7
	.ascii "_ZNSt11char_traitsIcE2ltERKcS2_\0"
	.long	0x428e
	.long	0xb03
	.uleb128 0x1
	.long	0x42e9
	.uleb128 0x1
	.long	0x42e9
	.byte	0
	.uleb128 0xc
	.ascii "compare\0"
	.byte	0x9
	.short	0x170
	.byte	0x7
	.ascii "_ZNSt11char_traitsIcE7compareEPKcS2_m\0"
	.long	0x3468
	.long	0xb4e
	.uleb128 0x1
	.long	0x42ef
	.uleb128 0x1
	.long	0x42ef
	.uleb128 0x1
	.long	0x491
	.byte	0
	.uleb128 0xc
	.ascii "length\0"
	.byte	0x9
	.short	0x183
	.byte	0x7
	.ascii "_ZNSt11char_traitsIcE6lengthEPKc\0"
	.long	0x491
	.long	0xb89
	.uleb128 0x1
	.long	0x42ef
	.byte	0
	.uleb128 0xc
	.ascii "find\0"
	.byte	0x9
	.short	0x18d
	.byte	0x7
	.ascii "_ZNSt11char_traitsIcE4findEPKcmRS1_\0"
	.long	0x42ef
	.long	0xbcf
	.uleb128 0x1
	.long	0x42ef
	.uleb128 0x1
	.long	0x491
	.uleb128 0x1
	.long	0x42e9
	.byte	0
	.uleb128 0xc
	.ascii "move\0"
	.byte	0x9
	.short	0x199
	.byte	0x7
	.ascii "_ZNSt11char_traitsIcE4moveEPcPKcm\0"
	.long	0x42f5
	.long	0xc13
	.uleb128 0x1
	.long	0x42f5
	.uleb128 0x1
	.long	0x42ef
	.uleb128 0x1
	.long	0x491
	.byte	0
	.uleb128 0xc
	.ascii "copy\0"
	.byte	0x9
	.short	0x1a5
	.byte	0x7
	.ascii "_ZNSt11char_traitsIcE4copyEPcPKcm\0"
	.long	0x42f5
	.long	0xc57
	.uleb128 0x1
	.long	0x42f5
	.uleb128 0x1
	.long	0x42ef
	.uleb128 0x1
	.long	0x491
	.byte	0
	.uleb128 0xc
	.ascii "assign\0"
	.byte	0x9
	.short	0x1b1
	.byte	0x7
	.ascii "_ZNSt11char_traitsIcE6assignEPcmc\0"
	.long	0x42f5
	.long	0xc9d
	.uleb128 0x1
	.long	0x42f5
	.uleb128 0x1
	.long	0x491
	.uleb128 0x1
	.long	0xa75
	.byte	0
	.uleb128 0xc
	.ascii "to_char_type\0"
	.byte	0x9
	.short	0x1bd
	.byte	0x7
	.ascii "_ZNSt11char_traitsIcE12to_char_typeERKi\0"
	.long	0xa75
	.long	0xce5
	.uleb128 0x1
	.long	0x42fb
	.byte	0
	.uleb128 0x21
	.ascii "int_type\0"
	.byte	0x9
	.short	0x14e
	.byte	0x21
	.long	0x3468
	.uleb128 0x8
	.long	0xce5
	.uleb128 0xc
	.ascii "to_int_type\0"
	.byte	0x9
	.short	0x1c3
	.byte	0x7
	.ascii "_ZNSt11char_traitsIcE11to_int_typeERKc\0"
	.long	0xce5
	.long	0xd42
	.uleb128 0x1
	.long	0x42e9
	.byte	0
	.uleb128 0xc
	.ascii "eq_int_type\0"
	.byte	0x9
	.short	0x1c7
	.byte	0x7
	.ascii "_ZNSt11char_traitsIcE11eq_int_typeERKiS2_\0"
	.long	0x428e
	.long	0xd90
	.uleb128 0x1
	.long	0x42fb
	.uleb128 0x1
	.long	0x42fb
	.byte	0
	.uleb128 0x43
	.ascii "eof\0"
	.byte	0x9
	.short	0x1cc
	.byte	0x7
	.ascii "_ZNSt11char_traitsIcE3eofEv\0"
	.long	0xce5
	.uleb128 0xc
	.ascii "not_eof\0"
	.byte	0x9
	.short	0x1d0
	.byte	0x7
	.ascii "_ZNSt11char_traitsIcE7not_eofERKi\0"
	.long	0xce5
	.long	0xdf6
	.uleb128 0x1
	.long	0x42fb
	.byte	0
	.uleb128 0x9
	.set L$set$225,LASF4-Lsection__debug_str
	.long L$set$225
	.long	0x356b
	.byte	0
	.uleb128 0x2
	.byte	0xa
	.byte	0x37
	.byte	0xb
	.long	0x4301
	.uleb128 0x2
	.byte	0xa
	.byte	0x38
	.byte	0xb
	.long	0x4553
	.uleb128 0x2
	.byte	0xa
	.byte	0x39
	.byte	0xb
	.long	0x4574
	.uleb128 0x2
	.byte	0xb
	.byte	0x42
	.byte	0xb
	.long	0x458d
	.uleb128 0x2
	.byte	0xb
	.byte	0x43
	.byte	0xb
	.long	0x45b3
	.uleb128 0x2
	.byte	0xb
	.byte	0x44
	.byte	0xb
	.long	0x45d9
	.uleb128 0x2
	.byte	0xb
	.byte	0x45
	.byte	0xb
	.long	0x45ff
	.uleb128 0x2
	.byte	0xb
	.byte	0x46
	.byte	0xb
	.long	0x4625
	.uleb128 0x2
	.byte	0xb
	.byte	0x47
	.byte	0xb
	.long	0x464b
	.uleb128 0x2
	.byte	0xb
	.byte	0x48
	.byte	0xb
	.long	0x4671
	.uleb128 0x2
	.byte	0xb
	.byte	0x49
	.byte	0xb
	.long	0x4698
	.uleb128 0x2
	.byte	0xb
	.byte	0x4a
	.byte	0xb
	.long	0x46bf
	.uleb128 0x2
	.byte	0xb
	.byte	0x4b
	.byte	0xb
	.long	0x46e6
	.uleb128 0x2
	.byte	0xb
	.byte	0x4c
	.byte	0xb
	.long	0x470d
	.uleb128 0x2
	.byte	0xb
	.byte	0x4d
	.byte	0xb
	.long	0x4736
	.uleb128 0x2
	.byte	0xb
	.byte	0x4e
	.byte	0xb
	.long	0x475d
	.uleb128 0x2
	.byte	0xb
	.byte	0x59
	.byte	0xb
	.long	0x4784
	.uleb128 0x65
	.ascii "_Swallow_assign\0"
	.byte	0x1
	.byte	0xc
	.short	0x11c
	.byte	0xa
	.uleb128 0x8
	.long	0xe88
	.uleb128 0x66
	.ascii "ignore\0"
	.byte	0xc
	.short	0x135
	.byte	0x2f
	.long	0xe9e
	.byte	0x1
	.byte	0
	.uleb128 0x44
	.set L$set$226,LASF5-Lsection__debug_str
	.long L$set$226
	.byte	0x1
	.byte	0xd
	.byte	0x4f
	.byte	0xa
	.long	0xef6
	.uleb128 0x45
	.set L$set$227,LASF5-Lsection__debug_str
	.long L$set$227
	.byte	0xd
	.byte	0x4f
	.byte	0x2b
	.ascii "_ZNSt21piecewise_construct_tC4Ev\0"
	.long	0xeef
	.uleb128 0x6
	.long	0x47cb
	.byte	0
	.byte	0
	.uleb128 0x8
	.long	0xeb5
	.uleb128 0x46
	.ascii "piecewise_construct\0"
	.byte	0xd
	.byte	0x52
	.byte	0x35
	.long	0xef6
	.byte	0x1
	.byte	0
	.uleb128 0x31
	.ascii "__debug\0"
	.byte	0xe
	.byte	0x32
	.byte	0xd
	.uleb128 0x2
	.byte	0xf
	.byte	0x89
	.byte	0xb
	.long	0x49fc
	.uleb128 0x2
	.byte	0xf
	.byte	0x8a
	.byte	0xb
	.long	0x4a37
	.uleb128 0x2
	.byte	0xf
	.byte	0x90
	.byte	0xb
	.long	0x4a84
	.uleb128 0x2
	.byte	0xf
	.byte	0x93
	.byte	0xb
	.long	0x4aa5
	.uleb128 0x2
	.byte	0xf
	.byte	0x96
	.byte	0xb
	.long	0x4ac5
	.uleb128 0x2
	.byte	0xf
	.byte	0x97
	.byte	0xb
	.long	0x4adc
	.uleb128 0x2
	.byte	0xf
	.byte	0x98
	.byte	0xb
	.long	0x4af3
	.uleb128 0x2
	.byte	0xf
	.byte	0x99
	.byte	0xb
	.long	0x4b0a
	.uleb128 0x2
	.byte	0xf
	.byte	0x9b
	.byte	0xb
	.long	0x4b52
	.uleb128 0x2
	.byte	0xf
	.byte	0x9e
	.byte	0xb
	.long	0x4b6d
	.uleb128 0x2
	.byte	0xf
	.byte	0xa0
	.byte	0xb
	.long	0x4b86
	.uleb128 0x2
	.byte	0xf
	.byte	0xa3
	.byte	0xb
	.long	0x4ba2
	.uleb128 0x2
	.byte	0xf
	.byte	0xa4
	.byte	0xb
	.long	0x4bbf
	.uleb128 0x2
	.byte	0xf
	.byte	0xa5
	.byte	0xb
	.long	0x4be4
	.uleb128 0x2
	.byte	0xf
	.byte	0xa7
	.byte	0xb
	.long	0x4c07
	.uleb128 0x2
	.byte	0xf
	.byte	0xaa
	.byte	0xb
	.long	0x4c2a
	.uleb128 0x2
	.byte	0xf
	.byte	0xad
	.byte	0xb
	.long	0x4c43
	.uleb128 0x2
	.byte	0xf
	.byte	0xaf
	.byte	0xb
	.long	0x4c50
	.uleb128 0x2
	.byte	0xf
	.byte	0xb0
	.byte	0xb
	.long	0x4c64
	.uleb128 0x2
	.byte	0xf
	.byte	0xb1
	.byte	0xb
	.long	0x4c8a
	.uleb128 0x2
	.byte	0xf
	.byte	0xb2
	.byte	0xb
	.long	0x4cad
	.uleb128 0x2
	.byte	0xf
	.byte	0xb3
	.byte	0xb
	.long	0x4cd1
	.uleb128 0x2
	.byte	0xf
	.byte	0xb5
	.byte	0xb
	.long	0x4cf2
	.uleb128 0x2
	.byte	0xf
	.byte	0xb6
	.byte	0xb
	.long	0x4d17
	.uleb128 0x2
	.byte	0xf
	.byte	0xfd
	.byte	0x16
	.long	0x4a74
	.uleb128 0xf
	.byte	0xf
	.short	0x102
	.byte	0x16
	.long	0x32b6
	.uleb128 0xf
	.byte	0xf
	.short	0x103
	.byte	0x16
	.long	0x4d35
	.uleb128 0xf
	.byte	0xf
	.short	0x105
	.byte	0x16
	.long	0x4d52
	.uleb128 0xf
	.byte	0xf
	.short	0x106
	.byte	0x16
	.long	0x4db3
	.uleb128 0xf
	.byte	0xf
	.short	0x107
	.byte	0x16
	.long	0x4d6a
	.uleb128 0xf
	.byte	0xf
	.short	0x108
	.byte	0x16
	.long	0x4d8e
	.uleb128 0xf
	.byte	0xf
	.short	0x109
	.byte	0x16
	.long	0x4dd9
	.uleb128 0x2
	.byte	0x10
	.byte	0x64
	.byte	0xb
	.long	0x3956
	.uleb128 0x2
	.byte	0x10
	.byte	0x65
	.byte	0xb
	.long	0x3724
	.uleb128 0x2
	.byte	0x10
	.byte	0x67
	.byte	0xb
	.long	0x4df8
	.uleb128 0x2
	.byte	0x10
	.byte	0x68
	.byte	0xb
	.long	0x4e0f
	.uleb128 0x2
	.byte	0x10
	.byte	0x69
	.byte	0xb
	.long	0x4e28
	.uleb128 0x2
	.byte	0x10
	.byte	0x6a
	.byte	0xb
	.long	0x4e3f
	.uleb128 0x2
	.byte	0x10
	.byte	0x6b
	.byte	0xb
	.long	0x4e58
	.uleb128 0x2
	.byte	0x10
	.byte	0x6c
	.byte	0xb
	.long	0x4e71
	.uleb128 0x2
	.byte	0x10
	.byte	0x6d
	.byte	0xb
	.long	0x4e89
	.uleb128 0x2
	.byte	0x10
	.byte	0x6e
	.byte	0xb
	.long	0x4eae
	.uleb128 0x2
	.byte	0x10
	.byte	0x6f
	.byte	0xb
	.long	0x4ed0
	.uleb128 0x2
	.byte	0x10
	.byte	0x73
	.byte	0xb
	.long	0x4ef4
	.uleb128 0x2
	.byte	0x10
	.byte	0x74
	.byte	0xb
	.long	0x4f1c
	.uleb128 0x2
	.byte	0x10
	.byte	0x76
	.byte	0xb
	.long	0x4f4a
	.uleb128 0x2
	.byte	0x10
	.byte	0x77
	.byte	0xb
	.long	0x4f6d
	.uleb128 0x2
	.byte	0x10
	.byte	0x78
	.byte	0xb
	.long	0x4f93
	.uleb128 0x2
	.byte	0x10
	.byte	0x7a
	.byte	0xb
	.long	0x4fac
	.uleb128 0x2
	.byte	0x10
	.byte	0x7b
	.byte	0xb
	.long	0x4fc4
	.uleb128 0x2
	.byte	0x10
	.byte	0x7e
	.byte	0xb
	.long	0x4fd5
	.uleb128 0x2
	.byte	0x10
	.byte	0x80
	.byte	0xb
	.long	0x4fed
	.uleb128 0x2
	.byte	0x10
	.byte	0x85
	.byte	0xb
	.long	0x5003
	.uleb128 0x2
	.byte	0x10
	.byte	0x86
	.byte	0xb
	.long	0x501d
	.uleb128 0x2
	.byte	0x10
	.byte	0x87
	.byte	0xb
	.long	0x503c
	.uleb128 0x2
	.byte	0x10
	.byte	0x89
	.byte	0xb
	.long	0x5052
	.uleb128 0x2
	.byte	0x10
	.byte	0x8a
	.byte	0xb
	.long	0x506d
	.uleb128 0x2
	.byte	0x10
	.byte	0x8d
	.byte	0xb
	.long	0x5097
	.uleb128 0x2
	.byte	0x10
	.byte	0x8f
	.byte	0xb
	.long	0x50a8
	.uleb128 0x2
	.byte	0x10
	.byte	0x91
	.byte	0xb
	.long	0x50c2
	.uleb128 0x31
	.ascii "_V2\0"
	.byte	0x11
	.byte	0x54
	.byte	0x1
	.uleb128 0x47
	.byte	0x11
	.byte	0x54
	.byte	0x1
	.long	0x110c
	.uleb128 0x67
	.ascii "_Ios_Fmtflags\0"
	.byte	0x4
	.long	0x3468
	.byte	0x2
	.byte	0x3b
	.byte	0x8
	.long	0x1276
	.uleb128 0x16
	.ascii "_S_boolalpha\0"
	.byte	0x1
	.uleb128 0x16
	.ascii "_S_dec\0"
	.byte	0x2
	.uleb128 0x16
	.ascii "_S_fixed\0"
	.byte	0x4
	.uleb128 0x16
	.ascii "_S_hex\0"
	.byte	0x8
	.uleb128 0x16
	.ascii "_S_internal\0"
	.byte	0x10
	.uleb128 0x16
	.ascii "_S_left\0"
	.byte	0x20
	.uleb128 0x16
	.ascii "_S_oct\0"
	.byte	0x40
	.uleb128 0x16
	.ascii "_S_right\0"
	.byte	0x80
	.uleb128 0x1a
	.ascii "_S_scientific\0"
	.short	0x100
	.uleb128 0x1a
	.ascii "_S_showbase\0"
	.short	0x200
	.uleb128 0x1a
	.ascii "_S_showpoint\0"
	.short	0x400
	.uleb128 0x1a
	.ascii "_S_showpos\0"
	.short	0x800
	.uleb128 0x1a
	.ascii "_S_skipws\0"
	.short	0x1000
	.uleb128 0x1a
	.ascii "_S_unitbuf\0"
	.short	0x2000
	.uleb128 0x1a
	.ascii "_S_uppercase\0"
	.short	0x4000
	.uleb128 0x16
	.ascii "_S_adjustfield\0"
	.byte	0xb0
	.uleb128 0x16
	.ascii "_S_basefield\0"
	.byte	0x4a
	.uleb128 0x1a
	.ascii "_S_floatfield\0"
	.short	0x104
	.uleb128 0x48
	.ascii "_S_ios_fmtflags_end\0"
	.long	0x10000
	.uleb128 0x48
	.ascii "_S_ios_fmtflags_max\0"
	.long	0x7fffffff
	.uleb128 0x68
	.ascii "_S_ios_fmtflags_min\0"
	.sleb128 -2147483648
	.byte	0
	.uleb128 0x8
	.long	0x111c
	.uleb128 0x49
	.ascii "ios_base\0"
	.long	0x140e
	.uleb128 0x69
	.ascii "Init\0"
	.byte	0x1
	.byte	0x2
	.short	0x29e
	.byte	0xb
	.byte	0x1
	.long	0x13a9
	.uleb128 0x4a
	.ascii "Init\0"
	.byte	0x2
	.short	0x2a2
	.byte	0x7
	.ascii "_ZNSt8ios_base4InitC4Ev\0"
	.byte	0x1
	.long	0x12c5
	.byte	0
	.long	0x12cb
	.uleb128 0x6
	.long	0x50e7
	.byte	0
	.uleb128 0x4a
	.ascii "~Init\0"
	.byte	0x2
	.short	0x2a3
	.byte	0x7
	.ascii "_ZNSt8ios_base4InitD4Ev\0"
	.byte	0x1
	.long	0x12f8
	.byte	0
	.long	0x12fe
	.uleb128 0x6
	.long	0x50e7
	.byte	0
	.uleb128 0x4b
	.ascii "Init\0"
	.byte	0x2
	.short	0x2a6
	.byte	0x7
	.ascii "_ZNSt8ios_base4InitC4ERKS0_\0"
	.byte	0x1
	.long	0x132d
	.long	0x1338
	.uleb128 0x6
	.long	0x50e7
	.uleb128 0x1
	.long	0x50f2
	.byte	0
	.uleb128 0x17
	.set L$set$228,LASF3-Lsection__debug_str
	.long L$set$228
	.byte	0x2
	.short	0x2a7
	.byte	0xd
	.ascii "_ZNSt8ios_base4InitaSERKS0_\0"
	.long	0x50f8
	.byte	0x1
	.long	0x136a
	.long	0x1375
	.uleb128 0x6
	.long	0x50e7
	.uleb128 0x1
	.long	0x50f2
	.byte	0
	.uleb128 0x4c
	.ascii "_S_refcount\0"
	.byte	0x2
	.short	0x2ab
	.byte	0x1b
	.long	0x47aa
	.uleb128 0x4c
	.ascii "_S_synced_with_stdio\0"
	.byte	0x2
	.short	0x2ac
	.byte	0x14
	.long	0x428e
	.byte	0
	.uleb128 0x8
	.long	0x1289
	.uleb128 0x4d
	.ascii "fmtflags\0"
	.byte	0x2
	.short	0x17a
	.byte	0x1b
	.long	0x111c
	.byte	0x1
	.uleb128 0x6a
	.ascii "setf\0"
	.byte	0x2
	.short	0x2e2
	.byte	0x5
	.ascii "_ZNSt8ios_base4setfESt13_Ios_FmtflagsS0_\0"
	.long	0x13ae
	.byte	0x1
	.long	0x13fd
	.uleb128 0x6
	.long	0x637e
	.uleb128 0x1
	.long	0x13ae
	.uleb128 0x1
	.long	0x13ae
	.byte	0
	.byte	0
	.uleb128 0x2
	.byte	0x12
	.byte	0x54
	.byte	0xb
	.long	0x50fe
	.uleb128 0x2
	.byte	0x12
	.byte	0x55
	.byte	0xb
	.long	0x3a69
	.uleb128 0x2
	.byte	0x12
	.byte	0x56
	.byte	0xb
	.long	0x3a5a
	.uleb128 0x2
	.byte	0x12
	.byte	0x58
	.byte	0xb
	.long	0x5110
	.uleb128 0x2
	.byte	0x12
	.byte	0x59
	.byte	0xb
	.long	0x5138
	.uleb128 0x2
	.byte	0x12
	.byte	0x5b
	.byte	0xb
	.long	0x5160
	.uleb128 0x2
	.byte	0x12
	.byte	0x5d
	.byte	0xb
	.long	0x5188
	.uleb128 0x2
	.byte	0x12
	.byte	0x5e
	.byte	0xb
	.long	0x51b0
	.uleb128 0x2
	.byte	0x12
	.byte	0x5f
	.byte	0xb
	.long	0x51de
	.uleb128 0x2
	.byte	0x12
	.byte	0x60
	.byte	0xb
	.long	0x5206
	.uleb128 0x2
	.byte	0x12
	.byte	0x61
	.byte	0xb
	.long	0x522e
	.uleb128 0x2
	.byte	0x12
	.byte	0x62
	.byte	0xb
	.long	0x5256
	.uleb128 0x2
	.byte	0x12
	.byte	0x63
	.byte	0xb
	.long	0x527e
	.uleb128 0x2
	.byte	0x12
	.byte	0x64
	.byte	0xb
	.long	0x52a6
	.uleb128 0x2
	.byte	0x12
	.byte	0x65
	.byte	0xb
	.long	0x52ce
	.uleb128 0x2
	.byte	0x12
	.byte	0x66
	.byte	0xb
	.long	0x52f6
	.uleb128 0x2
	.byte	0x12
	.byte	0x67
	.byte	0xb
	.long	0x5320
	.uleb128 0x2
	.byte	0x12
	.byte	0x68
	.byte	0xb
	.long	0x5341
	.uleb128 0x2
	.byte	0x12
	.byte	0x69
	.byte	0xb
	.long	0x5369
	.uleb128 0x2
	.byte	0x12
	.byte	0x6a
	.byte	0xb
	.long	0x5391
	.uleb128 0x2
	.byte	0x12
	.byte	0x6b
	.byte	0xb
	.long	0x53ab
	.uleb128 0x49
	.ascii "basic_ostream<char, std::char_traits<char> >\0"
	.long	0x15a9
	.uleb128 0x22
	.set L$set$229,LASF6-Lsection__debug_str
	.long L$set$229
	.byte	0x13
	.byte	0x72
	.byte	0x5
	.ascii "_ZNSolsEi\0"
	.long	0x53c4
	.byte	0x1
	.long	0x1507
	.long	0x1512
	.uleb128 0x6
	.long	0x55e7
	.uleb128 0x1
	.long	0x3468
	.byte	0
	.uleb128 0x6b
	.ascii "__ostream_type\0"
	.byte	0x14
	.byte	0x4f
	.byte	0x2f
	.long	0x14b6
	.byte	0x1
	.uleb128 0x22
	.set L$set$230,LASF6-Lsection__debug_str
	.long L$set$230
	.byte	0x14
	.byte	0x87
	.byte	0x7
	.ascii "_ZNSolsEPFRSt8ios_baseS0_E\0"
	.long	0x5e05
	.byte	0x1
	.long	0x155a
	.long	0x1565
	.uleb128 0x6
	.long	0x55e7
	.uleb128 0x1
	.long	0x5e0b
	.byte	0
	.uleb128 0x22
	.set L$set$231,LASF6-Lsection__debug_str
	.long L$set$231
	.byte	0x14
	.byte	0x74
	.byte	0x7
	.ascii "_ZNSolsEPFRSoS_E\0"
	.long	0x5e05
	.byte	0x1
	.long	0x158b
	.long	0x1596
	.uleb128 0x6
	.long	0x55e7
	.uleb128 0x1
	.long	0x5e44
	.byte	0
	.uleb128 0x9
	.set L$set$232,LASF4-Lsection__debug_str
	.long L$set$232
	.long	0x356b
	.uleb128 0x6c
	.set L$set$233,LASF20-Lsection__debug_str
	.long L$set$233
	.long	0xa1b
	.byte	0
	.uleb128 0x5
	.ascii "ostream\0"
	.byte	0x15
	.byte	0x91
	.byte	0x21
	.long	0x14b6
	.uleb128 0x6d
	.ascii "cout\0"
	.byte	0x4
	.byte	0x41
	.byte	0x12
	.ascii "_ZSt4cout\0"
	.long	0x15a9
	.uleb128 0x6e
	.ascii "__ioinit\0"
	.byte	0x4
	.byte	0x52
	.byte	0x19
	.long	0x1289
	.uleb128 0x2
	.byte	0x16
	.byte	0x35
	.byte	0xb
	.long	0x36ab
	.uleb128 0x2
	.byte	0x16
	.byte	0x36
	.byte	0xb
	.long	0x36ba
	.uleb128 0x2
	.byte	0x16
	.byte	0x37
	.byte	0xb
	.long	0x36ca
	.uleb128 0x2
	.byte	0x16
	.byte	0x38
	.byte	0xb
	.long	0x36da
	.uleb128 0x2
	.byte	0x16
	.byte	0x3a
	.byte	0xb
	.long	0x48fe
	.uleb128 0x2
	.byte	0x16
	.byte	0x3b
	.byte	0xb
	.long	0x4912
	.uleb128 0x2
	.byte	0x16
	.byte	0x3c
	.byte	0xb
	.long	0x4927
	.uleb128 0x2
	.byte	0x16
	.byte	0x3d
	.byte	0xb
	.long	0x493c
	.uleb128 0x2
	.byte	0x16
	.byte	0x3f
	.byte	0xb
	.long	0x484c
	.uleb128 0x2
	.byte	0x16
	.byte	0x40
	.byte	0xb
	.long	0x4861
	.uleb128 0x2
	.byte	0x16
	.byte	0x41
	.byte	0xb
	.long	0x4877
	.uleb128 0x2
	.byte	0x16
	.byte	0x42
	.byte	0xb
	.long	0x488d
	.uleb128 0x2
	.byte	0x16
	.byte	0x44
	.byte	0xb
	.long	0x49a8
	.uleb128 0x2
	.byte	0x16
	.byte	0x45
	.byte	0xb
	.long	0x36ea
	.uleb128 0x2
	.byte	0x16
	.byte	0x47
	.byte	0xb
	.long	0x4809
	.uleb128 0x2
	.byte	0x16
	.byte	0x48
	.byte	0xb
	.long	0x4819
	.uleb128 0x2
	.byte	0x16
	.byte	0x49
	.byte	0xb
	.long	0x482a
	.uleb128 0x2
	.byte	0x16
	.byte	0x4a
	.byte	0xb
	.long	0x483b
	.uleb128 0x2
	.byte	0x16
	.byte	0x4c
	.byte	0xb
	.long	0x4951
	.uleb128 0x2
	.byte	0x16
	.byte	0x4d
	.byte	0xb
	.long	0x4966
	.uleb128 0x2
	.byte	0x16
	.byte	0x4e
	.byte	0xb
	.long	0x497c
	.uleb128 0x2
	.byte	0x16
	.byte	0x4f
	.byte	0xb
	.long	0x4992
	.uleb128 0x2
	.byte	0x16
	.byte	0x51
	.byte	0xb
	.long	0x48a3
	.uleb128 0x2
	.byte	0x16
	.byte	0x52
	.byte	0xb
	.long	0x48b9
	.uleb128 0x2
	.byte	0x16
	.byte	0x53
	.byte	0xb
	.long	0x48d0
	.uleb128 0x2
	.byte	0x16
	.byte	0x54
	.byte	0xb
	.long	0x48e7
	.uleb128 0x2
	.byte	0x16
	.byte	0x56
	.byte	0xb
	.long	0x49be
	.uleb128 0x2
	.byte	0x16
	.byte	0x57
	.byte	0xb
	.long	0x36fb
	.uleb128 0x2
	.byte	0x17
	.byte	0x3e
	.byte	0xb
	.long	0x3969
	.uleb128 0x2
	.byte	0x17
	.byte	0x3f
	.byte	0xb
	.long	0x3979
	.uleb128 0x2
	.byte	0x17
	.byte	0x40
	.byte	0xb
	.long	0x398d
	.uleb128 0x2
	.byte	0x17
	.byte	0x42
	.byte	0xb
	.long	0x540b
	.uleb128 0x2
	.byte	0x17
	.byte	0x43
	.byte	0xb
	.long	0x5421
	.uleb128 0x2
	.byte	0x17
	.byte	0x44
	.byte	0xb
	.long	0x5441
	.uleb128 0x2
	.byte	0x17
	.byte	0x45
	.byte	0xb
	.long	0x5468
	.uleb128 0x2
	.byte	0x17
	.byte	0x46
	.byte	0xb
	.long	0x5485
	.uleb128 0x2
	.byte	0x17
	.byte	0x47
	.byte	0xb
	.long	0x549f
	.uleb128 0x2
	.byte	0x17
	.byte	0x48
	.byte	0xb
	.long	0x54bd
	.uleb128 0x2
	.byte	0x17
	.byte	0x49
	.byte	0xb
	.long	0x54d6
	.uleb128 0x40
	.ascii "chrono\0"
	.byte	0x3
	.byte	0x3d
	.byte	0xd
	.long	0x29b3
	.uleb128 0x27
	.ascii "_V2\0"
	.byte	0x3
	.short	0x4c6
	.byte	0x1
	.long	0x1874
	.uleb128 0x6f
	.ascii "system_clock\0"
	.byte	0x1
	.byte	0x3
	.short	0x4ce
	.byte	0xc
	.uleb128 0x23
	.ascii "is_steady\0"
	.byte	0x3
	.short	0x4d9
	.byte	0x1d
	.long	0x4296
	.byte	0
	.uleb128 0x70
	.set L$set$234,LASF7-Lsection__debug_str
	.long L$set$234
	.byte	0x3
	.short	0x4d3
	.byte	0x3b
	.long	0x1fea
	.uleb128 0x8
	.long	0x175c
	.uleb128 0x43
	.ascii "now\0"
	.byte	0x3
	.short	0x4dc
	.byte	0x7
	.ascii "_ZNSt6chrono3_V212system_clock3nowEv\0"
	.long	0x175c
	.uleb128 0xc
	.ascii "to_time_t\0"
	.byte	0x3
	.short	0x4e0
	.byte	0x7
	.ascii "_ZNSt6chrono3_V212system_clock9to_time_tERKNS_10time_pointIS1_NS_8durationIxSt5ratioILl1ELl1000000000EEEEEE\0"
	.long	0x3979
	.long	0x1829
	.uleb128 0x1
	.long	0x5526
	.byte	0
	.uleb128 0x4e
	.ascii "from_time_t\0"
	.byte	0x3
	.short	0x4e7
	.byte	0x7
	.ascii "_ZNSt6chrono3_V212system_clock11from_time_tEl\0"
	.long	0x175c
	.uleb128 0x1
	.long	0x3979
	.byte	0
	.byte	0
	.byte	0
	.uleb128 0x30
	.byte	0x3
	.short	0x4c6
	.byte	0x1
	.long	0x1728
	.uleb128 0x4f
	.ascii "duration<long long int, std::ratio<1, 1000000000> >\0"
	.byte	0x8
	.byte	0x3
	.short	0x203
	.byte	0xd
	.long	0x1fe5
	.uleb128 0xc
	.ascii "_S_gcd\0"
	.byte	0x3
	.short	0x20f
	.byte	0x2
	.ascii "_ZNSt6chrono8durationIxSt5ratioILl1ELl1000000000EEE6_S_gcdEll\0"
	.long	0x49a8
	.long	0x1918
	.uleb128 0x1
	.long	0x49a8
	.uleb128 0x1
	.long	0x49a8
	.byte	0
	.uleb128 0x32
	.set L$set$235,LASF8-Lsection__debug_str
	.long L$set$235
	.byte	0x3
	.short	0x238
	.byte	0xc
	.ascii "_ZNSt6chrono8durationIxSt5ratioILl1ELl1000000000EEEC4Ev\0"
	.byte	0x1
	.long	0x1962
	.long	0x1968
	.uleb128 0x6
	.long	0x54fe
	.byte	0
	.uleb128 0x32
	.set L$set$236,LASF8-Lsection__debug_str
	.long L$set$236
	.byte	0x3
	.short	0x23a
	.byte	0x2
	.ascii "_ZNSt6chrono8durationIxSt5ratioILl1ELl1000000000EEEC4ERKS3_\0"
	.byte	0x1
	.long	0x19b6
	.long	0x19c1
	.uleb128 0x6
	.long	0x54fe
	.uleb128 0x1
	.long	0x5509
	.byte	0
	.uleb128 0x4b
	.ascii "~duration\0"
	.byte	0x3
	.short	0x24c
	.byte	0x2
	.ascii "_ZNSt6chrono8durationIxSt5ratioILl1ELl1000000000EEED4Ev\0"
	.byte	0x1
	.long	0x1a11
	.long	0x1a17
	.uleb128 0x6
	.long	0x54fe
	.byte	0
	.uleb128 0x17
	.set L$set$237,LASF3-Lsection__debug_str
	.long L$set$237
	.byte	0x3
	.short	0x24d
	.byte	0xc
	.ascii "_ZNSt6chrono8durationIxSt5ratioILl1ELl1000000000EEEaSERKS3_\0"
	.long	0x550f
	.byte	0x1
	.long	0x1a69
	.long	0x1a74
	.uleb128 0x6
	.long	0x54fe
	.uleb128 0x1
	.long	0x5509
	.byte	0
	.uleb128 0x4d
	.ascii "rep\0"
	.byte	0x3
	.short	0x234
	.byte	0x8
	.long	0x34a9
	.byte	0x1
	.uleb128 0x8
	.long	0x1a74
	.uleb128 0x1d
	.ascii "count\0"
	.byte	0x3
	.short	0x251
	.byte	0x2
	.ascii "_ZNKSt6chrono8durationIxSt5ratioILl1ELl1000000000EEE5countEv\0"
	.long	0x1a74
	.byte	0x1
	.long	0x1adc
	.long	0x1ae2
	.uleb128 0x6
	.long	0x5515
	.byte	0
	.uleb128 0x1d
	.ascii "operator+\0"
	.byte	0x3
	.short	0x257
	.byte	0x2
	.ascii "_ZNKSt6chrono8durationIxSt5ratioILl1ELl1000000000EEEpsEv\0"
	.long	0x187d
	.byte	0x1
	.long	0x1b37
	.long	0x1b3d
	.uleb128 0x6
	.long	0x5515
	.byte	0
	.uleb128 0x1d
	.ascii "operator-\0"
	.byte	0x3
	.short	0x25b
	.byte	0x2
	.ascii "_ZNKSt6chrono8durationIxSt5ratioILl1ELl1000000000EEEngEv\0"
	.long	0x187d
	.byte	0x1
	.long	0x1b92
	.long	0x1b98
	.uleb128 0x6
	.long	0x5515
	.byte	0
	.uleb128 0x17
	.set L$set$238,LASF9-Lsection__debug_str
	.long L$set$238
	.byte	0x3
	.short	0x25f
	.byte	0x2
	.ascii "_ZNSt6chrono8durationIxSt5ratioILl1ELl1000000000EEEppEv\0"
	.long	0x550f
	.byte	0x1
	.long	0x1be6
	.long	0x1bec
	.uleb128 0x6
	.long	0x54fe
	.byte	0
	.uleb128 0x17
	.set L$set$239,LASF9-Lsection__debug_str
	.long L$set$239
	.byte	0x3
	.short	0x266
	.byte	0x2
	.ascii "_ZNSt6chrono8durationIxSt5ratioILl1ELl1000000000EEEppEi\0"
	.long	0x187d
	.byte	0x1
	.long	0x1c3a
	.long	0x1c45
	.uleb128 0x6
	.long	0x54fe
	.uleb128 0x1
	.long	0x3468
	.byte	0
	.uleb128 0x17
	.set L$set$240,LASF10-Lsection__debug_str
	.long L$set$240
	.byte	0x3
	.short	0x26a
	.byte	0x2
	.ascii "_ZNSt6chrono8durationIxSt5ratioILl1ELl1000000000EEEmmEv\0"
	.long	0x550f
	.byte	0x1
	.long	0x1c93
	.long	0x1c99
	.uleb128 0x6
	.long	0x54fe
	.byte	0
	.uleb128 0x17
	.set L$set$241,LASF10-Lsection__debug_str
	.long L$set$241
	.byte	0x3
	.short	0x271
	.byte	0x2
	.ascii "_ZNSt6chrono8durationIxSt5ratioILl1ELl1000000000EEEmmEi\0"
	.long	0x187d
	.byte	0x1
	.long	0x1ce7
	.long	0x1cf2
	.uleb128 0x6
	.long	0x54fe
	.uleb128 0x1
	.long	0x3468
	.byte	0
	.uleb128 0x17
	.set L$set$242,LASF11-Lsection__debug_str
	.long L$set$242
	.byte	0x3
	.short	0x275
	.byte	0x2
	.ascii "_ZNSt6chrono8durationIxSt5ratioILl1ELl1000000000EEEpLERKS3_\0"
	.long	0x550f
	.byte	0x1
	.long	0x1d44
	.long	0x1d4f
	.uleb128 0x6
	.long	0x54fe
	.uleb128 0x1
	.long	0x5509
	.byte	0
	.uleb128 0x17
	.set L$set$243,LASF12-Lsection__debug_str
	.long L$set$243
	.byte	0x3
	.short	0x27c
	.byte	0x2
	.ascii "_ZNSt6chrono8durationIxSt5ratioILl1ELl1000000000EEEmIERKS3_\0"
	.long	0x550f
	.byte	0x1
	.long	0x1da1
	.long	0x1dac
	.uleb128 0x6
	.long	0x54fe
	.uleb128 0x1
	.long	0x5509
	.byte	0
	.uleb128 0x1d
	.ascii "operator*=\0"
	.byte	0x3
	.short	0x283
	.byte	0x2
	.ascii "_ZNSt6chrono8durationIxSt5ratioILl1ELl1000000000EEEmLERKx\0"
	.long	0x550f
	.byte	0x1
	.long	0x1e03
	.long	0x1e0e
	.uleb128 0x6
	.long	0x54fe
	.uleb128 0x1
	.long	0x5520
	.byte	0
	.uleb128 0x1d
	.ascii "operator/=\0"
	.byte	0x3
	.short	0x28a
	.byte	0x2
	.ascii "_ZNSt6chrono8durationIxSt5ratioILl1ELl1000000000EEEdVERKx\0"
	.long	0x550f
	.byte	0x1
	.long	0x1e65
	.long	0x1e70
	.uleb128 0x6
	.long	0x54fe
	.uleb128 0x1
	.long	0x5520
	.byte	0
	.uleb128 0x24
	.ascii "zero\0"
	.byte	0x3
	.short	0x2a5
	.byte	0x2
	.ascii "_ZNSt6chrono8durationIxSt5ratioILl1ELl1000000000EEE4zeroEv\0"
	.long	0x187d
	.byte	0x1
	.uleb128 0x24
	.ascii "min\0"
	.byte	0x3
	.short	0x2a9
	.byte	0x2
	.ascii "_ZNSt6chrono8durationIxSt5ratioILl1ELl1000000000EEE3minEv\0"
	.long	0x187d
	.byte	0x1
	.uleb128 0x24
	.ascii "max\0"
	.byte	0x3
	.short	0x2ad
	.byte	0x2
	.ascii "_ZNSt6chrono8durationIxSt5ratioILl1ELl1000000000EEE3maxEv\0"
	.long	0x187d
	.byte	0x1
	.uleb128 0x50
	.ascii "__r\0"
	.byte	0x3
	.short	0x2b1
	.byte	0x6
	.long	0x1a74
	.byte	0
	.uleb128 0x71
	.ascii "duration<long long int>\0"
	.byte	0x3
	.short	0x241
	.byte	0x17
	.ascii "_ZNSt6chrono8durationIxSt5ratioILl1ELl1000000000EEEC4IxvEERKT_\0"
	.byte	0x1
	.long	0x1fc6
	.long	0x1fd1
	.uleb128 0x9
	.set L$set$244,LASF13-Lsection__debug_str
	.long L$set$244
	.long	0x34a9
	.uleb128 0x6
	.long	0x54fe
	.uleb128 0x1
	.long	0x629f
	.byte	0
	.uleb128 0x10
	.ascii "_Rep\0"
	.long	0x34a9
	.uleb128 0x9
	.set L$set$245,LASF14-Lsection__debug_str
	.long L$set$245
	.long	0x2b6d
	.byte	0
	.uleb128 0x8
	.long	0x187d
	.uleb128 0x4f
	.ascii "time_point<std::chrono::_V2::system_clock, std::chrono::duration<long long int, std::ratio<1, 1000000000> > >\0"
	.byte	0x8
	.byte	0x3
	.short	0x39e
	.byte	0xd
	.long	0x2414
	.uleb128 0x32
	.set L$set$246,LASF7-Lsection__debug_str
	.long L$set$246
	.byte	0x3
	.short	0x3a9
	.byte	0xc
	.ascii "_ZNSt6chrono10time_pointINS_3_V212system_clockENS_8durationIxSt5ratioILl1ELl1000000000EEEEEC4Ev\0"
	.byte	0x1
	.long	0x20d4
	.long	0x20da
	.uleb128 0x6
	.long	0x552c
	.byte	0
	.uleb128 0x72
	.set L$set$247,LASF7-Lsection__debug_str
	.long L$set$247
	.byte	0x3
	.short	0x3ac
	.byte	0x15
	.ascii "_ZNSt6chrono10time_pointINS_3_V212system_clockENS_8durationIxSt5ratioILl1ELl1000000000EEEEEC4ERKS6_\0"
	.byte	0x1
	.long	0x2150
	.long	0x215b
	.uleb128 0x6
	.long	0x552c
	.uleb128 0x1
	.long	0x5532
	.byte	0
	.uleb128 0x73
	.set L$set$248,LASF8-Lsection__debug_str
	.long L$set$248
	.byte	0x3
	.short	0x3a5
	.byte	0x14
	.long	0x187d
	.byte	0x1
	.uleb128 0x8
	.long	0x215b
	.uleb128 0x1d
	.ascii "time_since_epoch\0"
	.byte	0x3
	.short	0x3b9
	.byte	0x2
	.ascii "_ZNKSt6chrono10time_pointINS_3_V212system_clockENS_8durationIxSt5ratioILl1ELl1000000000EEEEE16time_since_epochEv\0"
	.long	0x215b
	.byte	0x1
	.long	0x2202
	.long	0x2208
	.uleb128 0x6
	.long	0x5538
	.byte	0
	.uleb128 0x17
	.set L$set$249,LASF11-Lsection__debug_str
	.long L$set$249
	.byte	0x3
	.short	0x3d6
	.byte	0x2
	.ascii "_ZNSt6chrono10time_pointINS_3_V212system_clockENS_8durationIxSt5ratioILl1ELl1000000000EEEEEpLERKS6_\0"
	.long	0x5543
	.byte	0x1
	.long	0x2282
	.long	0x228d
	.uleb128 0x6
	.long	0x552c
	.uleb128 0x1
	.long	0x5532
	.byte	0
	.uleb128 0x17
	.set L$set$250,LASF12-Lsection__debug_str
	.long L$set$250
	.byte	0x3
	.short	0x3dd
	.byte	0x2
	.ascii "_ZNSt6chrono10time_pointINS_3_V212system_clockENS_8durationIxSt5ratioILl1ELl1000000000EEEEEmIERKS6_\0"
	.long	0x5543
	.byte	0x1
	.long	0x2307
	.long	0x2312
	.uleb128 0x6
	.long	0x552c
	.uleb128 0x1
	.long	0x5532
	.byte	0
	.uleb128 0x24
	.ascii "min\0"
	.byte	0x3
	.short	0x3e5
	.byte	0x2
	.ascii "_ZNSt6chrono10time_pointINS_3_V212system_clockENS_8durationIxSt5ratioILl1ELl1000000000EEEEE3minEv\0"
	.long	0x1fea
	.byte	0x1
	.uleb128 0x24
	.ascii "max\0"
	.byte	0x3
	.short	0x3e9
	.byte	0x2
	.ascii "_ZNSt6chrono10time_pointINS_3_V212system_clockENS_8durationIxSt5ratioILl1ELl1000000000EEEEE3maxEv\0"
	.long	0x1fea
	.byte	0x1
	.uleb128 0x50
	.ascii "__d\0"
	.byte	0x3
	.short	0x3ed
	.byte	0xb
	.long	0x215b
	.byte	0
	.uleb128 0x9
	.set L$set$251,LASF15-Lsection__debug_str
	.long L$set$251
	.long	0x1735
	.uleb128 0x10
	.ascii "_Dur\0"
	.long	0x187d
	.byte	0
	.uleb128 0x8
	.long	0x1fea
	.uleb128 0x11
	.ascii "__duration_cast_impl<std::chrono::duration<long long int, std::ratio<1, 1000000000> >, std::ratio<1, 1>, long long int, true, true>\0"
	.byte	0x1
	.byte	0x3
	.byte	0xc6
	.byte	0xe
	.long	0x25be
	.uleb128 0xa
	.ascii "__cast<long long int, std::ratio<1, 1000000000> >\0"
	.byte	0x3
	.byte	0xca
	.byte	0x4
	.ascii "_ZNSt6chrono20__duration_cast_implINS_8durationIxSt5ratioILl1ELl1000000000EEEES2_ILl1ELl1EExLb1ELb1EE6__castIxS3_EES4_RKNS1_IT_T0_EE\0"
	.long	0x187d
	.long	0x2582
	.uleb128 0x10
	.ascii "_Rep\0"
	.long	0x34a9
	.uleb128 0x9
	.set L$set$252,LASF14-Lsection__debug_str
	.long L$set$252
	.long	0x2b6d
	.uleb128 0x1
	.long	0x5509
	.byte	0
	.uleb128 0x9
	.set L$set$253,LASF16-Lsection__debug_str
	.long L$set$253
	.long	0x187d
	.uleb128 0x10
	.ascii "_CF\0"
	.long	0x2c7d
	.uleb128 0x10
	.ascii "_CR\0"
	.long	0x34a9
	.uleb128 0x19
	.ascii "_NumIsOne\0"
	.long	0x428e
	.byte	0x1
	.uleb128 0x19
	.ascii "_DenIsOne\0"
	.long	0x428e
	.byte	0x1
	.byte	0
	.uleb128 0xc
	.ascii "operator-<long long int, std::ratio<1, 1000000000>, long long int, std::ratio<1, 1000000000> >\0"
	.byte	0x3
	.short	0x2ca
	.byte	0x7
	.ascii "_ZNSt6chronomiIxSt5ratioILl1ELl1000000000EExS2_EENSt11common_typeIJNS_8durationIT_T0_EENS4_IT1_T2_EEEE4typeERKS7_RKSA_\0"
	.long	0x2c5f
	.long	0x26d2
	.uleb128 0x10
	.ascii "_Rep1\0"
	.long	0x34a9
	.uleb128 0x9
	.set L$set$254,LASF17-Lsection__debug_str
	.long L$set$254
	.long	0x2b6d
	.uleb128 0x9
	.set L$set$255,LASF13-Lsection__debug_str
	.long L$set$255
	.long	0x34a9
	.uleb128 0x9
	.set L$set$256,LASF18-Lsection__debug_str
	.long L$set$256
	.long	0x2b6d
	.uleb128 0x1
	.long	0x5509
	.uleb128 0x1
	.long	0x5509
	.byte	0
	.uleb128 0x5
	.ascii "__enable_if_is_duration\0"
	.byte	0x3
	.byte	0xf6
	.byte	0xd
	.long	0x2d7a
	.uleb128 0xc
	.ascii "duration_cast<std::chrono::duration<long long int, std::ratio<1, 1000000000> >, long long int, std::ratio<1, 1000000000> >\0"
	.byte	0x3
	.short	0x117
	.byte	0x7
	.ascii "_ZNSt6chrono13duration_castINS_8durationIxSt5ratioILl1ELl1000000000EEEExS3_EENSt9enable_ifIXsrNS_13__is_durationIT_EE5valueES7_E4typeERKNS1_IT0_T1_EE\0"
	.long	0x26d2
	.long	0x2832
	.uleb128 0x9
	.set L$set$257,LASF16-Lsection__debug_str
	.long L$set$257
	.long	0x187d
	.uleb128 0x10
	.ascii "_Rep\0"
	.long	0x34a9
	.uleb128 0x9
	.set L$set$258,LASF14-Lsection__debug_str
	.long L$set$258
	.long	0x2b6d
	.uleb128 0x1
	.long	0x5509
	.byte	0
	.uleb128 0x4e
	.ascii "operator-<std::chrono::_V2::system_clock, std::chrono::duration<long long int, std::ratio<1, 1000000000> >, std::chrono::duration<long long int, std::ratio<1, 1000000000> > >\0"
	.byte	0x3
	.short	0x479
	.byte	0x7
	.ascii "_ZNSt6chronomiINS_3_V212system_clockENS_8durationIxSt5ratioILl1ELl1000000000EEEES6_EENSt11common_typeIJT0_T1_EE4typeERKNS_10time_pointIT_S8_EERKNSC_ISD_S9_EE\0"
	.long	0x2c5f
	.uleb128 0x9
	.set L$set$259,LASF15-Lsection__debug_str
	.long L$set$259
	.long	0x1735
	.uleb128 0x10
	.ascii "_Dur1\0"
	.long	0x187d
	.uleb128 0x10
	.ascii "_Dur2\0"
	.long	0x187d
	.uleb128 0x1
	.long	0x5f1d
	.uleb128 0x1
	.long	0x5f1d
	.byte	0
	.byte	0
	.uleb128 0x11
	.ascii "integral_constant<long int, 1>\0"
	.byte	0x1
	.byte	0x6
	.byte	0x5c
	.byte	0xc
	.long	0x2a7c
	.uleb128 0x28
	.set L$set$260,LASF0-Lsection__debug_str
	.long L$set$260
	.byte	0x6
	.byte	0x5e
	.byte	0x1c
	.long	0x34ff
	.uleb128 0x29
	.set L$set$261,LASF1-Lsection__debug_str
	.long L$set$261
	.byte	0x6
	.byte	0x5f
	.byte	0xd
	.long	0x34f3
	.uleb128 0x20
	.ascii "operator std::integral_constant<long int, 1>::value_type\0"
	.byte	0x6
	.byte	0x61
	.byte	0x11
	.ascii "_ZNKSt17integral_constantIlLl1EEcvlEv\0"
	.long	0x29e7
	.long	0x2a62
	.long	0x2a68
	.uleb128 0x6
	.long	0x54f2
	.byte	0
	.uleb128 0x10
	.ascii "_Tp\0"
	.long	0x34f3
	.uleb128 0x19
	.ascii "__v\0"
	.long	0x34f3
	.byte	0x1
	.byte	0
	.uleb128 0x8
	.long	0x29b3
	.uleb128 0x11
	.ascii "integral_constant<long int, 1000000000>\0"
	.byte	0x1
	.byte	0x6
	.byte	0x5c
	.byte	0xc
	.long	0x2b68
	.uleb128 0x28
	.set L$set$262,LASF0-Lsection__debug_str
	.long L$set$262
	.byte	0x6
	.byte	0x5e
	.byte	0x1c
	.long	0x34ff
	.uleb128 0x29
	.set L$set$263,LASF1-Lsection__debug_str
	.long L$set$263
	.byte	0x6
	.byte	0x5f
	.byte	0xd
	.long	0x34f3
	.uleb128 0x20
	.ascii "operator std::integral_constant<long int, 1000000000>::value_type\0"
	.byte	0x6
	.byte	0x61
	.byte	0x11
	.ascii "_ZNKSt17integral_constantIlLl1000000000EEcvlEv\0"
	.long	0x2abe
	.long	0x2b4b
	.long	0x2b51
	.uleb128 0x6
	.long	0x54f8
	.byte	0
	.uleb128 0x10
	.ascii "_Tp\0"
	.long	0x34f3
	.uleb128 0x33
	.ascii "__v\0"
	.long	0x34f3
	.long	0x3b9aca00
	.byte	0
	.uleb128 0x8
	.long	0x2a81
	.uleb128 0x2b
	.ascii "ratio<1, 1000000000>\0"
	.byte	0x1
	.byte	0x18
	.short	0x10f
	.byte	0xc
	.long	0x2bc5
	.uleb128 0x23
	.ascii "num\0"
	.byte	0x18
	.short	0x116
	.byte	0x21
	.long	0x49b9
	.byte	0x1
	.uleb128 0x51
	.ascii "den\0"
	.byte	0x18
	.short	0x119
	.byte	0x21
	.long	0x49b9
	.long	0x3b9aca00
	.uleb128 0x19
	.ascii "_Num\0"
	.long	0x34f3
	.byte	0x1
	.uleb128 0x33
	.ascii "_Den\0"
	.long	0x34f3
	.long	0x3b9aca00
	.byte	0
	.uleb128 0x11
	.ascii "common_type<std::chrono::duration<long long int, std::ratio<1, 1000000000> >, std::chrono::duration<long long int, std::ratio<1, 1000000000> > >\0"
	.byte	0x1
	.byte	0x3
	.byte	0x76
	.byte	0xc
	.long	0x2c7d
	.uleb128 0x5
	.ascii "type\0"
	.byte	0x3
	.byte	0x79
	.byte	0xd
	.long	0x187d
	.uleb128 0x74
	.ascii "_Tp\0"
	.uleb128 0x52
	.long	0x187d
	.uleb128 0x52
	.long	0x187d
	.byte	0
	.byte	0
	.uleb128 0x2b
	.ascii "ratio<1, 1>\0"
	.byte	0x1
	.byte	0x18
	.short	0x10f
	.byte	0xc
	.long	0x2cc6
	.uleb128 0x23
	.ascii "num\0"
	.byte	0x18
	.short	0x116
	.byte	0x21
	.long	0x49b9
	.byte	0x1
	.uleb128 0x23
	.ascii "den\0"
	.byte	0x18
	.short	0x119
	.byte	0x21
	.long	0x49b9
	.byte	0x1
	.uleb128 0x19
	.ascii "_Num\0"
	.long	0x34f3
	.byte	0x1
	.uleb128 0x75
	.ascii "_Den\0"
	.long	0x34f3
	.byte	0x1
	.byte	0
	.uleb128 0x44
	.set L$set$264,LASF19-Lsection__debug_str
	.long L$set$264
	.byte	0x1
	.byte	0x19
	.byte	0x38
	.byte	0xa
	.long	0x2d01
	.uleb128 0x45
	.set L$set$265,LASF19-Lsection__debug_str
	.long L$set$265
	.byte	0x19
	.byte	0x38
	.byte	0x25
	.ascii "_ZNSt15allocator_arg_tC4Ev\0"
	.long	0x2cfa
	.uleb128 0x6
	.long	0x5549
	.byte	0
	.byte	0
	.uleb128 0x8
	.long	0x2cc6
	.uleb128 0x46
	.ascii "allocator_arg\0"
	.byte	0x19
	.byte	0x3a
	.byte	0x2f
	.long	0x2d01
	.byte	0x1
	.byte	0
	.uleb128 0x11
	.ascii "enable_if<true, std::chrono::duration<long long int, std::ratio<1, 1000000000> > >\0"
	.byte	0x1
	.byte	0x6
	.byte	0x8a
	.byte	0xc
	.long	0x2d91
	.uleb128 0x5
	.ascii "type\0"
	.byte	0x6
	.byte	0x8b
	.byte	0xd
	.long	0x187d
	.uleb128 0x10
	.ascii "_Tp\0"
	.long	0x187d
	.byte	0
	.uleb128 0x2b
	.ascii "ratio<1000000000, 1>\0"
	.byte	0x1
	.byte	0x18
	.short	0x10f
	.byte	0xc
	.long	0x2de9
	.uleb128 0x51
	.ascii "num\0"
	.byte	0x18
	.short	0x116
	.byte	0x21
	.long	0x49b9
	.long	0x3b9aca00
	.uleb128 0x23
	.ascii "den\0"
	.byte	0x18
	.short	0x119
	.byte	0x21
	.long	0x49b9
	.byte	0x1
	.uleb128 0x33
	.ascii "_Num\0"
	.long	0x34f3
	.long	0x3b9aca00
	.uleb128 0x19
	.ascii "_Den\0"
	.long	0x34f3
	.byte	0x1
	.byte	0
	.uleb128 0xa
	.ascii "endl<char, std::char_traits<char> >\0"
	.byte	0x1a
	.byte	0x42
	.byte	0x5
	.ascii "_ZSt4endlIcSt11char_traitsIcEERSt13basic_ostreamIT_T0_ES6_\0"
	.long	0x53c4
	.long	0x2e6c
	.uleb128 0x9
	.set L$set$266,LASF4-Lsection__debug_str
	.long L$set$266
	.long	0x356b
	.uleb128 0x9
	.set L$set$267,LASF20-Lsection__debug_str
	.long L$set$267
	.long	0xa1b
	.uleb128 0x1
	.long	0x53c4
	.byte	0
	.uleb128 0xc
	.ascii "operator<< <std::char_traits<char> >\0"
	.byte	0x14
	.short	0x2de
	.byte	0x5
	.ascii "_ZStlsISt11char_traitsIcEERSt13basic_ostreamIcT_ES5_PKc\0"
	.long	0x53c4
	.long	0x2eea
	.uleb128 0x9
	.set L$set$268,LASF20-Lsection__debug_str
	.long L$set$268
	.long	0xa1b
	.uleb128 0x1
	.long	0x53c4
	.uleb128 0x1
	.long	0x391a
	.byte	0
	.uleb128 0xc
	.ascii "hex\0"
	.byte	0x2
	.short	0x44e
	.byte	0x3
	.ascii "_ZSt3hexRSt8ios_base\0"
	.long	0x50e1
	.long	0x2f16
	.uleb128 0x1
	.long	0x50e1
	.byte	0
	.uleb128 0xa
	.ascii "operator&=\0"
	.byte	0x2
	.byte	0x6f
	.byte	0x3
	.ascii "_ZStaNRSt13_Ios_FmtflagsS_\0"
	.long	0x63ef
	.long	0x2f53
	.uleb128 0x1
	.long	0x63f5
	.uleb128 0x1
	.long	0x111c
	.byte	0
	.uleb128 0xa
	.ascii "operator|=\0"
	.byte	0x2
	.byte	0x6a
	.byte	0x3
	.ascii "_ZStoRRSt13_Ios_FmtflagsS_\0"
	.long	0x63ef
	.long	0x2f90
	.uleb128 0x1
	.long	0x63f5
	.uleb128 0x1
	.long	0x111c
	.byte	0
	.uleb128 0xa
	.ascii "operator~\0"
	.byte	0x2
	.byte	0x65
	.byte	0x3
	.ascii "_ZStcoSt13_Ios_Fmtflags\0"
	.long	0x111c
	.long	0x2fc4
	.uleb128 0x1
	.long	0x111c
	.byte	0
	.uleb128 0xa
	.ascii "operator|\0"
	.byte	0x2
	.byte	0x5b
	.byte	0x3
	.ascii "_ZStorSt13_Ios_FmtflagsS_\0"
	.long	0x111c
	.long	0x2fff
	.uleb128 0x1
	.long	0x111c
	.uleb128 0x1
	.long	0x111c
	.byte	0
	.uleb128 0x76
	.ascii "operator&\0"
	.byte	0x2
	.byte	0x56
	.byte	0x3
	.ascii "_ZStanSt13_Ios_FmtflagsS_\0"
	.long	0x111c
	.uleb128 0x1
	.long	0x111c
	.uleb128 0x1
	.long	0x111c
	.byte	0
	.byte	0
	.uleb128 0x27
	.ascii "__gnu_cxx\0"
	.byte	0x7
	.short	0x175
	.byte	0xb
	.long	0x341b
	.uleb128 0x2f
	.ascii "__cxx11\0"
	.byte	0x7
	.short	0x177
	.byte	0x41
	.uleb128 0x30
	.byte	0x7
	.short	0x177
	.byte	0x41
	.long	0x304a
	.uleb128 0x2
	.byte	0x5
	.byte	0xfd
	.byte	0xb
	.long	0x41f6
	.uleb128 0xf
	.byte	0x5
	.short	0x106
	.byte	0xb
	.long	0x4224
	.uleb128 0xf
	.byte	0x5
	.short	0x107
	.byte	0xb
	.long	0x4248
	.uleb128 0x11
	.ascii "__numeric_traits_floating<float>\0"
	.byte	0x1
	.byte	0x1b
	.byte	0xa0
	.byte	0xc
	.long	0x30de
	.uleb128 0xb
	.set L$set$269,LASF21-Lsection__debug_str
	.long L$set$269
	.byte	0x1b
	.byte	0xa3
	.byte	0x18
	.long	0x346f
	.uleb128 0xb
	.set L$set$270,LASF22-Lsection__debug_str
	.long L$set$270
	.byte	0x1b
	.byte	0xa6
	.byte	0x19
	.long	0x4296
	.uleb128 0xb
	.set L$set$271,LASF23-Lsection__debug_str
	.long L$set$271
	.byte	0x1b
	.byte	0xa7
	.byte	0x18
	.long	0x346f
	.uleb128 0xb
	.set L$set$272,LASF24-Lsection__debug_str
	.long L$set$272
	.byte	0x1b
	.byte	0xa8
	.byte	0x18
	.long	0x346f
	.uleb128 0x9
	.set L$set$273,LASF25-Lsection__debug_str
	.long L$set$273
	.long	0x3fe3
	.byte	0
	.uleb128 0x11
	.ascii "__numeric_traits_floating<double>\0"
	.byte	0x1
	.byte	0x1b
	.byte	0xa0
	.byte	0xc
	.long	0x3143
	.uleb128 0xb
	.set L$set$274,LASF21-Lsection__debug_str
	.long L$set$274
	.byte	0x1b
	.byte	0xa3
	.byte	0x18
	.long	0x346f
	.uleb128 0xb
	.set L$set$275,LASF22-Lsection__debug_str
	.long L$set$275
	.byte	0x1b
	.byte	0xa6
	.byte	0x19
	.long	0x4296
	.uleb128 0xb
	.set L$set$276,LASF23-Lsection__debug_str
	.long L$set$276
	.byte	0x1b
	.byte	0xa7
	.byte	0x18
	.long	0x346f
	.uleb128 0xb
	.set L$set$277,LASF24-Lsection__debug_str
	.long L$set$277
	.byte	0x1b
	.byte	0xa8
	.byte	0x18
	.long	0x346f
	.uleb128 0x9
	.set L$set$278,LASF25-Lsection__debug_str
	.long L$set$278
	.long	0x3fb5
	.byte	0
	.uleb128 0x11
	.ascii "__numeric_traits_floating<long double>\0"
	.byte	0x1
	.byte	0x1b
	.byte	0xa0
	.byte	0xc
	.long	0x31ad
	.uleb128 0xb
	.set L$set$279,LASF21-Lsection__debug_str
	.long L$set$279
	.byte	0x1b
	.byte	0xa3
	.byte	0x18
	.long	0x346f
	.uleb128 0xb
	.set L$set$280,LASF22-Lsection__debug_str
	.long L$set$280
	.byte	0x1b
	.byte	0xa6
	.byte	0x19
	.long	0x4296
	.uleb128 0xb
	.set L$set$281,LASF23-Lsection__debug_str
	.long L$set$281
	.byte	0x1b
	.byte	0xa7
	.byte	0x18
	.long	0x346f
	.uleb128 0xb
	.set L$set$282,LASF24-Lsection__debug_str
	.long L$set$282
	.byte	0x1b
	.byte	0xa8
	.byte	0x18
	.long	0x346f
	.uleb128 0x9
	.set L$set$283,LASF25-Lsection__debug_str
	.long L$set$283
	.long	0x4215
	.byte	0
	.uleb128 0x31
	.ascii "__ops\0"
	.byte	0x1c
	.byte	0x25
	.byte	0xb
	.uleb128 0x11
	.ascii "__numeric_traits_integer<int>\0"
	.byte	0x1
	.byte	0x1b
	.byte	0x3f
	.byte	0xc
	.long	0x3218
	.uleb128 0xb
	.set L$set$284,LASF22-Lsection__debug_str
	.long L$set$284
	.byte	0x1b
	.byte	0x48
	.byte	0x19
	.long	0x4296
	.uleb128 0xb
	.set L$set$285,LASF26-Lsection__debug_str
	.long L$set$285
	.byte	0x1b
	.byte	0x49
	.byte	0x18
	.long	0x346f
	.uleb128 0xb
	.set L$set$286,LASF27-Lsection__debug_str
	.long L$set$286
	.byte	0x1b
	.byte	0x4d
	.byte	0x1b
	.long	0x346f
	.uleb128 0xb
	.set L$set$287,LASF28-Lsection__debug_str
	.long L$set$287
	.byte	0x1b
	.byte	0x50
	.byte	0x1b
	.long	0x346f
	.uleb128 0x9
	.set L$set$288,LASF25-Lsection__debug_str
	.long L$set$288
	.long	0x3468
	.byte	0
	.uleb128 0x11
	.ascii "__numeric_traits_integer<long int>\0"
	.byte	0x1
	.byte	0x1b
	.byte	0x3f
	.byte	0xc
	.long	0x327e
	.uleb128 0xb
	.set L$set$289,LASF22-Lsection__debug_str
	.long L$set$289
	.byte	0x1b
	.byte	0x48
	.byte	0x19
	.long	0x4296
	.uleb128 0xb
	.set L$set$290,LASF26-Lsection__debug_str
	.long L$set$290
	.byte	0x1b
	.byte	0x49
	.byte	0x18
	.long	0x346f
	.uleb128 0xb
	.set L$set$291,LASF27-Lsection__debug_str
	.long L$set$291
	.byte	0x1b
	.byte	0x4d
	.byte	0x1b
	.long	0x34ff
	.uleb128 0xb
	.set L$set$292,LASF28-Lsection__debug_str
	.long L$set$292
	.byte	0x1b
	.byte	0x50
	.byte	0x1b
	.long	0x34ff
	.uleb128 0x9
	.set L$set$293,LASF25-Lsection__debug_str
	.long L$set$293
	.long	0x34f3
	.byte	0
	.uleb128 0x2
	.byte	0xf
	.byte	0xd2
	.byte	0xb
	.long	0x4a74
	.uleb128 0x2
	.byte	0xf
	.byte	0xe4
	.byte	0xb
	.long	0x4d35
	.uleb128 0x2
	.byte	0xf
	.byte	0xf0
	.byte	0xb
	.long	0x4d52
	.uleb128 0x2
	.byte	0xf
	.byte	0xf1
	.byte	0xb
	.long	0x4d6a
	.uleb128 0x2
	.byte	0xf
	.byte	0xf2
	.byte	0xb
	.long	0x4d8e
	.uleb128 0x2
	.byte	0xf
	.byte	0xf4
	.byte	0xb
	.long	0x4db3
	.uleb128 0x2
	.byte	0xf
	.byte	0xf5
	.byte	0xb
	.long	0x4dd9
	.uleb128 0xa
	.ascii "div\0"
	.byte	0xf
	.byte	0xe1
	.byte	0x3
	.ascii "_ZN9__gnu_cxx3divExx\0"
	.long	0x4a74
	.long	0x32e6
	.uleb128 0x1
	.long	0x34a9
	.uleb128 0x1
	.long	0x34a9
	.byte	0
	.uleb128 0x11
	.ascii "__numeric_traits_integer<long unsigned int>\0"
	.byte	0x1
	.byte	0x1b
	.byte	0x3f
	.byte	0xc
	.long	0x3355
	.uleb128 0xb
	.set L$set$294,LASF22-Lsection__debug_str
	.long L$set$294
	.byte	0x1b
	.byte	0x48
	.byte	0x19
	.long	0x4296
	.uleb128 0xb
	.set L$set$295,LASF26-Lsection__debug_str
	.long L$set$295
	.byte	0x1b
	.byte	0x49
	.byte	0x18
	.long	0x346f
	.uleb128 0xb
	.set L$set$296,LASF27-Lsection__debug_str
	.long L$set$296
	.byte	0x1b
	.byte	0x4d
	.byte	0x1b
	.long	0x3566
	.uleb128 0xb
	.set L$set$297,LASF28-Lsection__debug_str
	.long L$set$297
	.byte	0x1b
	.byte	0x50
	.byte	0x1b
	.long	0x3566
	.uleb128 0x9
	.set L$set$298,LASF25-Lsection__debug_str
	.long L$set$298
	.long	0x3551
	.byte	0
	.uleb128 0x11
	.ascii "__numeric_traits_integer<char>\0"
	.byte	0x1
	.byte	0x1b
	.byte	0x3f
	.byte	0xc
	.long	0x33b7
	.uleb128 0xb
	.set L$set$299,LASF22-Lsection__debug_str
	.long L$set$299
	.byte	0x1b
	.byte	0x48
	.byte	0x19
	.long	0x4296
	.uleb128 0xb
	.set L$set$300,LASF26-Lsection__debug_str
	.long L$set$300
	.byte	0x1b
	.byte	0x49
	.byte	0x18
	.long	0x346f
	.uleb128 0xb
	.set L$set$301,LASF27-Lsection__debug_str
	.long L$set$301
	.byte	0x1b
	.byte	0x4d
	.byte	0x1b
	.long	0x3573
	.uleb128 0xb
	.set L$set$302,LASF28-Lsection__debug_str
	.long L$set$302
	.byte	0x1b
	.byte	0x50
	.byte	0x1b
	.long	0x3573
	.uleb128 0x9
	.set L$set$303,LASF25-Lsection__debug_str
	.long L$set$303
	.long	0x356b
	.byte	0
	.uleb128 0x77
	.ascii "__numeric_traits_integer<short int>\0"
	.byte	0x1
	.byte	0x1b
	.byte	0x3f
	.byte	0xc
	.uleb128 0xb
	.set L$set$304,LASF22-Lsection__debug_str
	.long L$set$304
	.byte	0x1b
	.byte	0x48
	.byte	0x19
	.long	0x4296
	.uleb128 0xb
	.set L$set$305,LASF26-Lsection__debug_str
	.long L$set$305
	.byte	0x1b
	.byte	0x49
	.byte	0x18
	.long	0x346f
	.uleb128 0xb
	.set L$set$306,LASF27-Lsection__debug_str
	.long L$set$306
	.byte	0x1b
	.byte	0x4d
	.byte	0x1b
	.long	0x344d
	.uleb128 0xb
	.set L$set$307,LASF28-Lsection__debug_str
	.long L$set$307
	.byte	0x1b
	.byte	0x50
	.byte	0x1b
	.long	0x344d
	.uleb128 0x9
	.set L$set$308,LASF25-Lsection__debug_str
	.long L$set$308
	.long	0x3440
	.byte	0
	.byte	0
	.uleb128 0xd
	.byte	0x1
	.byte	0x6
	.ascii "signed char\0"
	.uleb128 0xd
	.byte	0x1
	.byte	0x8
	.ascii "unsigned char\0"
	.uleb128 0x78
	.long	0x342a
	.uleb128 0xd
	.byte	0x2
	.byte	0x5
	.ascii "short int\0"
	.uleb128 0x8
	.long	0x3440
	.uleb128 0xd
	.byte	0x2
	.byte	0x7
	.ascii "short unsigned int\0"
	.uleb128 0xd
	.byte	0x4
	.byte	0x5
	.ascii "int\0"
	.uleb128 0x8
	.long	0x3468
	.uleb128 0x5
	.ascii "__uint32_t\0"
	.byte	0x1d
	.byte	0x24
	.byte	0x21
	.long	0x3487
	.uleb128 0xd
	.byte	0x4
	.byte	0x7
	.ascii "unsigned int\0"
	.uleb128 0x5
	.ascii "__int64_t\0"
	.byte	0x1d
	.byte	0x25
	.byte	0x21
	.long	0x34a9
	.uleb128 0xd
	.byte	0x8
	.byte	0x5
	.ascii "long long int\0"
	.uleb128 0x8
	.long	0x34a9
	.uleb128 0xd
	.byte	0x8
	.byte	0x7
	.ascii "long long unsigned int\0"
	.uleb128 0x5
	.ascii "__darwin_intptr_t\0"
	.byte	0x1d
	.byte	0x28
	.byte	0x21
	.long	0x34f3
	.uleb128 0xd
	.byte	0x8
	.byte	0x5
	.ascii "long int\0"
	.uleb128 0x8
	.long	0x34f3
	.uleb128 0x79
	.byte	0x80
	.byte	0x1d
	.byte	0x43
	.byte	0xf
	.ascii "11__mbstate_t\0"
	.long	0x3541
	.uleb128 0x53
	.ascii "__mbstate8\0"
	.byte	0x1d
	.byte	0x44
	.byte	0x12
	.long	0x3541
	.uleb128 0x53
	.ascii "_mbstateL\0"
	.byte	0x1d
	.byte	0x45
	.byte	0x12
	.long	0x34a9
	.byte	0
	.uleb128 0x25
	.long	0x356b
	.long	0x3551
	.uleb128 0x2c
	.long	0x3551
	.byte	0x7f
	.byte	0
	.uleb128 0xd
	.byte	0x8
	.byte	0x7
	.ascii "long unsigned int\0"
	.uleb128 0x8
	.long	0x3551
	.uleb128 0xd
	.byte	0x1
	.byte	0x6
	.ascii "char\0"
	.uleb128 0x8
	.long	0x356b
	.uleb128 0x5
	.ascii "__mbstate_t\0"
	.byte	0x1d
	.byte	0x46
	.byte	0x3
	.long	0x3504
	.uleb128 0x5
	.ascii "__darwin_mbstate_t\0"
	.byte	0x1d
	.byte	0x48
	.byte	0x21
	.long	0x3578
	.uleb128 0x5
	.ascii "__darwin_size_t\0"
	.byte	0x1d
	.byte	0x57
	.byte	0x21
	.long	0x3551
	.uleb128 0x5
	.ascii "__darwin_va_list\0"
	.byte	0x1d
	.byte	0x5f
	.byte	0x21
	.long	0x35d8
	.uleb128 0x7a
	.byte	0x8
	.ascii "__builtin_va_list\0"
	.long	0x356b
	.uleb128 0x5
	.ascii "__darwin_wint_t\0"
	.byte	0x1d
	.byte	0x6f
	.byte	0x21
	.long	0x3468
	.uleb128 0x5
	.ascii "__darwin_clock_t\0"
	.byte	0x1d
	.byte	0x74
	.byte	0x21
	.long	0x3551
	.uleb128 0x5
	.ascii "__darwin_time_t\0"
	.byte	0x1d
	.byte	0x77
	.byte	0x21
	.long	0x34f3
	.uleb128 0x5
	.ascii "__darwin_off_t\0"
	.byte	0x1e
	.byte	0x53
	.byte	0x19
	.long	0x3497
	.uleb128 0x25
	.long	0x342a
	.long	0x3660
	.uleb128 0x2c
	.long	0x3551
	.byte	0xf
	.byte	0
	.uleb128 0x7b
	.byte	0x8
	.uleb128 0x5
	.ascii "__darwin_wctrans_t\0"
	.byte	0x1f
	.byte	0x2c
	.byte	0xe
	.long	0x3468
	.uleb128 0x5
	.ascii "__darwin_wctype_t\0"
	.byte	0x1f
	.byte	0x2e
	.byte	0x14
	.long	0x3474
	.uleb128 0x5
	.ascii "size_t\0"
	.byte	0x20
	.byte	0x32
	.byte	0x20
	.long	0x35a7
	.uleb128 0x8
	.long	0x3697
	.uleb128 0x5
	.ascii "int8_t\0"
	.byte	0x21
	.byte	0x1e
	.byte	0x1f
	.long	0x341b
	.uleb128 0x5
	.ascii "int16_t\0"
	.byte	0x22
	.byte	0x1e
	.byte	0x21
	.long	0x3440
	.uleb128 0x5
	.ascii "int32_t\0"
	.byte	0x23
	.byte	0x1e
	.byte	0x21
	.long	0x3468
	.uleb128 0x5
	.ascii "int64_t\0"
	.byte	0x24
	.byte	0x1e
	.byte	0x21
	.long	0x34a9
	.uleb128 0x5
	.ascii "intptr_t\0"
	.byte	0x25
	.byte	0x20
	.byte	0x21
	.long	0x34d9
	.uleb128 0x5
	.ascii "uintptr_t\0"
	.byte	0x26
	.byte	0x22
	.byte	0x21
	.long	0x3551
	.uleb128 0x5
	.ascii "mbstate_t\0"
	.byte	0x27
	.byte	0x20
	.byte	0x1c
	.long	0x358c
	.uleb128 0x8
	.long	0x370d
	.uleb128 0x5
	.ascii "fpos_t\0"
	.byte	0x28
	.byte	0x5f
	.byte	0x19
	.long	0x3639
	.uleb128 0x8
	.long	0x3724
	.uleb128 0x11
	.ascii "__sbuf\0"
	.byte	0x10
	.byte	0x28
	.byte	0x6a
	.byte	0x8
	.long	0x3767
	.uleb128 0x4
	.ascii "_base\0"
	.byte	0x28
	.byte	0x6b
	.byte	0x24
	.long	0x3767
	.byte	0
	.uleb128 0x4
	.ascii "_size\0"
	.byte	0x28
	.byte	0x6c
	.byte	0x7
	.long	0x3468
	.byte	0x8
	.byte	0
	.uleb128 0x7
	.byte	0x8
	.long	0x342a
	.uleb128 0x11
	.ascii "__sFILE\0"
	.byte	0x98
	.byte	0x28
	.byte	0x8c
	.byte	0x10
	.long	0x38a8
	.uleb128 0x4
	.ascii "_p\0"
	.byte	0x28
	.byte	0x8d
	.byte	0x28
	.long	0x3767
	.byte	0
	.uleb128 0x4
	.ascii "_r\0"
	.byte	0x28
	.byte	0x8e
	.byte	0x6
	.long	0x3468
	.byte	0x8
	.uleb128 0x4
	.ascii "_w\0"
	.byte	0x28
	.byte	0x8f
	.byte	0x6
	.long	0x3468
	.byte	0xc
	.uleb128 0x4
	.ascii "_flags\0"
	.byte	0x28
	.byte	0x90
	.byte	0x8
	.long	0x3440
	.byte	0x10
	.uleb128 0x4
	.ascii "_file\0"
	.byte	0x28
	.byte	0x91
	.byte	0x8
	.long	0x3440
	.byte	0x12
	.uleb128 0x4
	.ascii "_bf\0"
	.byte	0x28
	.byte	0x92
	.byte	0x10
	.long	0x3738
	.byte	0x18
	.uleb128 0x4
	.ascii "_lbfsize\0"
	.byte	0x28
	.byte	0x93
	.byte	0x6
	.long	0x3468
	.byte	0x28
	.uleb128 0x4
	.ascii "_cookie\0"
	.byte	0x28
	.byte	0x96
	.byte	0x8
	.long	0x3660
	.byte	0x30
	.uleb128 0x4
	.ascii "_close\0"
	.byte	0x28
	.byte	0x97
	.byte	0x13
	.long	0x38b7
	.byte	0x38
	.uleb128 0x4
	.ascii "_read\0"
	.byte	0x28
	.byte	0x98
	.byte	0x13
	.long	0x38dc
	.byte	0x40
	.uleb128 0x4
	.ascii "_seek\0"
	.byte	0x28
	.byte	0x99
	.byte	0x16
	.long	0x38fb
	.byte	0x48
	.uleb128 0x4
	.ascii "_write\0"
	.byte	0x28
	.byte	0x9a
	.byte	0x13
	.long	0x3920
	.byte	0x50
	.uleb128 0x4
	.ascii "_ub\0"
	.byte	0x28
	.byte	0x9d
	.byte	0x10
	.long	0x3738
	.byte	0x58
	.uleb128 0x4
	.ascii "_extra\0"
	.byte	0x28
	.byte	0x9e
	.byte	0x13
	.long	0x3930
	.byte	0x68
	.uleb128 0x4
	.ascii "_ur\0"
	.byte	0x28
	.byte	0x9f
	.byte	0x6
	.long	0x3468
	.byte	0x70
	.uleb128 0x4
	.ascii "_ubuf\0"
	.byte	0x28
	.byte	0xa2
	.byte	0x10
	.long	0x3936
	.byte	0x74
	.uleb128 0x4
	.ascii "_nbuf\0"
	.byte	0x28
	.byte	0xa3
	.byte	0x10
	.long	0x3946
	.byte	0x77
	.uleb128 0x4
	.ascii "_lb\0"
	.byte	0x28
	.byte	0xa6
	.byte	0x10
	.long	0x3738
	.byte	0x78
	.uleb128 0x4
	.ascii "_blksize\0"
	.byte	0x28
	.byte	0xa9
	.byte	0x6
	.long	0x3468
	.byte	0x88
	.uleb128 0x4
	.ascii "_offset\0"
	.byte	0x28
	.byte	0xaa
	.byte	0x9
	.long	0x3724
	.byte	0x90
	.byte	0
	.uleb128 0x1c
	.long	0x3468
	.long	0x38b7
	.uleb128 0x1
	.long	0x3660
	.byte	0
	.uleb128 0x7
	.byte	0x8
	.long	0x38a8
	.uleb128 0x1c
	.long	0x3468
	.long	0x38d6
	.uleb128 0x1
	.long	0x3660
	.uleb128 0x1
	.long	0x38d6
	.uleb128 0x1
	.long	0x3468
	.byte	0
	.uleb128 0x7
	.byte	0x8
	.long	0x356b
	.uleb128 0x7
	.byte	0x8
	.long	0x38bd
	.uleb128 0x1c
	.long	0x3724
	.long	0x38fb
	.uleb128 0x1
	.long	0x3660
	.uleb128 0x1
	.long	0x3724
	.uleb128 0x1
	.long	0x3468
	.byte	0
	.uleb128 0x7
	.byte	0x8
	.long	0x38e2
	.uleb128 0x1c
	.long	0x3468
	.long	0x391a
	.uleb128 0x1
	.long	0x3660
	.uleb128 0x1
	.long	0x391a
	.uleb128 0x1
	.long	0x3468
	.byte	0
	.uleb128 0x7
	.byte	0x8
	.long	0x3573
	.uleb128 0x7
	.byte	0x8
	.long	0x3901
	.uleb128 0x7c
	.ascii "__sFILEX\0"
	.uleb128 0x7
	.byte	0x8
	.long	0x3926
	.uleb128 0x25
	.long	0x342a
	.long	0x3946
	.uleb128 0x2c
	.long	0x3551
	.byte	0x2
	.byte	0
	.uleb128 0x25
	.long	0x342a
	.long	0x3956
	.uleb128 0x2c
	.long	0x3551
	.byte	0
	.byte	0
	.uleb128 0x5
	.ascii "FILE\0"
	.byte	0x28
	.byte	0xab
	.byte	0x3
	.long	0x376d
	.uleb128 0x7
	.byte	0x8
	.long	0x3956
	.uleb128 0x5
	.ascii "clock_t\0"
	.byte	0x29
	.byte	0x1f
	.byte	0x21
	.long	0x3608
	.uleb128 0x5
	.ascii "time_t\0"
	.byte	0x2a
	.byte	0x1f
	.byte	0x21
	.long	0x3621
	.uleb128 0x8
	.long	0x3979
	.uleb128 0x11
	.ascii "tm\0"
	.byte	0x38
	.byte	0x2b
	.byte	0x4e
	.byte	0x8
	.long	0x3a55
	.uleb128 0x4
	.ascii "tm_sec\0"
	.byte	0x2b
	.byte	0x4f
	.byte	0x6
	.long	0x3468
	.byte	0
	.uleb128 0x4
	.ascii "tm_min\0"
	.byte	0x2b
	.byte	0x50
	.byte	0x6
	.long	0x3468
	.byte	0x4
	.uleb128 0x4
	.ascii "tm_hour\0"
	.byte	0x2b
	.byte	0x51
	.byte	0x6
	.long	0x3468
	.byte	0x8
	.uleb128 0x4
	.ascii "tm_mday\0"
	.byte	0x2b
	.byte	0x52
	.byte	0x6
	.long	0x3468
	.byte	0xc
	.uleb128 0x4
	.ascii "tm_mon\0"
	.byte	0x2b
	.byte	0x53
	.byte	0x6
	.long	0x3468
	.byte	0x10
	.uleb128 0x4
	.ascii "tm_year\0"
	.byte	0x2b
	.byte	0x54
	.byte	0x6
	.long	0x3468
	.byte	0x14
	.uleb128 0x4
	.ascii "tm_wday\0"
	.byte	0x2b
	.byte	0x55
	.byte	0x6
	.long	0x3468
	.byte	0x18
	.uleb128 0x4
	.ascii "tm_yday\0"
	.byte	0x2b
	.byte	0x56
	.byte	0x6
	.long	0x3468
	.byte	0x1c
	.uleb128 0x4
	.ascii "tm_isdst\0"
	.byte	0x2b
	.byte	0x57
	.byte	0x6
	.long	0x3468
	.byte	0x20
	.uleb128 0x4
	.ascii "tm_gmtoff\0"
	.byte	0x2b
	.byte	0x58
	.byte	0x7
	.long	0x34f3
	.byte	0x28
	.uleb128 0x4
	.ascii "tm_zone\0"
	.byte	0x2b
	.byte	0x59
	.byte	0x13
	.long	0x38d6
	.byte	0x30
	.byte	0
	.uleb128 0x8
	.long	0x398d
	.uleb128 0x5
	.ascii "wint_t\0"
	.byte	0x2c
	.byte	0x20
	.byte	0x19
	.long	0x35f0
	.uleb128 0x5
	.ascii "wctype_t\0"
	.byte	0x2d
	.byte	0x20
	.byte	0x1b
	.long	0x367d
	.uleb128 0x7
	.byte	0x8
	.long	0x391a
	.uleb128 0x7
	.byte	0x8
	.long	0x38d6
	.uleb128 0x3
	.ascii "btowc\0"
	.byte	0x2e
	.byte	0x63
	.byte	0x8
	.long	0x3a5a
	.long	0x3a9e
	.uleb128 0x1
	.long	0x3468
	.byte	0
	.uleb128 0x3
	.ascii "fgetwc\0"
	.byte	0x2e
	.byte	0x64
	.byte	0x8
	.long	0x3a5a
	.long	0x3ab7
	.uleb128 0x1
	.long	0x3963
	.byte	0
	.uleb128 0x3
	.ascii "fgetws\0"
	.byte	0x2e
	.byte	0x66
	.byte	0x2
	.long	0x3ada
	.long	0x3ada
	.uleb128 0x1
	.long	0x3ada
	.uleb128 0x1
	.long	0x3468
	.uleb128 0x1
	.long	0x3963
	.byte	0
	.uleb128 0x7
	.byte	0x8
	.long	0x3ae0
	.uleb128 0xd
	.byte	0x4
	.byte	0x5
	.ascii "wchar_t\0"
	.uleb128 0x8
	.long	0x3ae0
	.uleb128 0x3
	.ascii "fputwc\0"
	.byte	0x2e
	.byte	0x68
	.byte	0x8
	.long	0x3a5a
	.long	0x3b0e
	.uleb128 0x1
	.long	0x3ae0
	.uleb128 0x1
	.long	0x3963
	.byte	0
	.uleb128 0x3
	.ascii "fputws\0"
	.byte	0x2e
	.byte	0x69
	.byte	0x5
	.long	0x3468
	.long	0x3b2c
	.uleb128 0x1
	.long	0x3b2c
	.uleb128 0x1
	.long	0x3963
	.byte	0
	.uleb128 0x7
	.byte	0x8
	.long	0x3aeb
	.uleb128 0x3
	.ascii "fwide\0"
	.byte	0x2e
	.byte	0x6a
	.byte	0x5
	.long	0x3468
	.long	0x3b4f
	.uleb128 0x1
	.long	0x3963
	.uleb128 0x1
	.long	0x3468
	.byte	0
	.uleb128 0x3
	.ascii "fwprintf\0"
	.byte	0x2e
	.byte	0x6b
	.byte	0x5
	.long	0x3468
	.long	0x3b70
	.uleb128 0x1
	.long	0x3963
	.uleb128 0x1
	.long	0x3b2c
	.uleb128 0x1e
	.byte	0
	.uleb128 0x3
	.ascii "fwscanf\0"
	.byte	0x2e
	.byte	0x6c
	.byte	0x5
	.long	0x3468
	.long	0x3b90
	.uleb128 0x1
	.long	0x3963
	.uleb128 0x1
	.long	0x3b2c
	.uleb128 0x1e
	.byte	0
	.uleb128 0x3
	.ascii "getwc\0"
	.byte	0x2e
	.byte	0x6d
	.byte	0x8
	.long	0x3a5a
	.long	0x3ba8
	.uleb128 0x1
	.long	0x3963
	.byte	0
	.uleb128 0x34
	.ascii "getwchar\0"
	.byte	0x2e
	.byte	0x6e
	.byte	0x8
	.long	0x3a5a
	.uleb128 0x3
	.ascii "mbrlen\0"
	.byte	0x2e
	.byte	0x6f
	.byte	0x8
	.long	0x3697
	.long	0x3bdc
	.uleb128 0x1
	.long	0x391a
	.uleb128 0x1
	.long	0x3697
	.uleb128 0x1
	.long	0x3bdc
	.byte	0
	.uleb128 0x7
	.byte	0x8
	.long	0x370d
	.uleb128 0x3
	.ascii "mbrtowc\0"
	.byte	0x2e
	.byte	0x71
	.byte	0x8
	.long	0x3697
	.long	0x3c0b
	.uleb128 0x1
	.long	0x3ada
	.uleb128 0x1
	.long	0x391a
	.uleb128 0x1
	.long	0x3697
	.uleb128 0x1
	.long	0x3bdc
	.byte	0
	.uleb128 0x3
	.ascii "mbsinit\0"
	.byte	0x2e
	.byte	0x73
	.byte	0x5
	.long	0x3468
	.long	0x3c25
	.uleb128 0x1
	.long	0x3c25
	.byte	0
	.uleb128 0x7
	.byte	0x8
	.long	0x371f
	.uleb128 0x3
	.ascii "mbsrtowcs\0"
	.byte	0x2e
	.byte	0x74
	.byte	0x8
	.long	0x3697
	.long	0x3c56
	.uleb128 0x1
	.long	0x3ada
	.uleb128 0x1
	.long	0x3a7a
	.uleb128 0x1
	.long	0x3697
	.uleb128 0x1
	.long	0x3bdc
	.byte	0
	.uleb128 0x3
	.ascii "putwc\0"
	.byte	0x2e
	.byte	0x76
	.byte	0x8
	.long	0x3a5a
	.long	0x3c73
	.uleb128 0x1
	.long	0x3ae0
	.uleb128 0x1
	.long	0x3963
	.byte	0
	.uleb128 0x3
	.ascii "putwchar\0"
	.byte	0x2e
	.byte	0x77
	.byte	0x8
	.long	0x3a5a
	.long	0x3c8e
	.uleb128 0x1
	.long	0x3ae0
	.byte	0
	.uleb128 0x3
	.ascii "swprintf\0"
	.byte	0x2e
	.byte	0x78
	.byte	0x5
	.long	0x3468
	.long	0x3cb4
	.uleb128 0x1
	.long	0x3ada
	.uleb128 0x1
	.long	0x3697
	.uleb128 0x1
	.long	0x3b2c
	.uleb128 0x1e
	.byte	0
	.uleb128 0x3
	.ascii "swscanf\0"
	.byte	0x2e
	.byte	0x7a
	.byte	0x5
	.long	0x3468
	.long	0x3cd4
	.uleb128 0x1
	.long	0x3b2c
	.uleb128 0x1
	.long	0x3b2c
	.uleb128 0x1e
	.byte	0
	.uleb128 0x3
	.ascii "ungetwc\0"
	.byte	0x2e
	.byte	0x7b
	.byte	0x8
	.long	0x3a5a
	.long	0x3cf3
	.uleb128 0x1
	.long	0x3a5a
	.uleb128 0x1
	.long	0x3963
	.byte	0
	.uleb128 0x3
	.ascii "vfwprintf\0"
	.byte	0x2e
	.byte	0x7c
	.byte	0x5
	.long	0x3468
	.long	0x3d19
	.uleb128 0x1
	.long	0x3963
	.uleb128 0x1
	.long	0x3b2c
	.uleb128 0x1
	.long	0x35bf
	.byte	0
	.uleb128 0x3
	.ascii "vfwscanf\0"
	.byte	0x2e
	.byte	0xc3
	.byte	0x5
	.long	0x3468
	.long	0x3d3e
	.uleb128 0x1
	.long	0x3963
	.uleb128 0x1
	.long	0x3b2c
	.uleb128 0x1
	.long	0x35bf
	.byte	0
	.uleb128 0x3
	.ascii "vswprintf\0"
	.byte	0x2e
	.byte	0x7e
	.byte	0x5
	.long	0x3468
	.long	0x3d69
	.uleb128 0x1
	.long	0x3ada
	.uleb128 0x1
	.long	0x3697
	.uleb128 0x1
	.long	0x3b2c
	.uleb128 0x1
	.long	0x35bf
	.byte	0
	.uleb128 0x3
	.ascii "vswscanf\0"
	.byte	0x2e
	.byte	0xc5
	.byte	0x5
	.long	0x3468
	.long	0x3d8e
	.uleb128 0x1
	.long	0x3b2c
	.uleb128 0x1
	.long	0x3b2c
	.uleb128 0x1
	.long	0x35bf
	.byte	0
	.uleb128 0x3
	.ascii "vwprintf\0"
	.byte	0x2e
	.byte	0x80
	.byte	0x5
	.long	0x3468
	.long	0x3dae
	.uleb128 0x1
	.long	0x3b2c
	.uleb128 0x1
	.long	0x35bf
	.byte	0
	.uleb128 0x3
	.ascii "vwscanf\0"
	.byte	0x2e
	.byte	0xc7
	.byte	0x5
	.long	0x3468
	.long	0x3dcd
	.uleb128 0x1
	.long	0x3b2c
	.uleb128 0x1
	.long	0x35bf
	.byte	0
	.uleb128 0x3
	.ascii "wcrtomb\0"
	.byte	0x2e
	.byte	0x81
	.byte	0x8
	.long	0x3697
	.long	0x3df1
	.uleb128 0x1
	.long	0x38d6
	.uleb128 0x1
	.long	0x3ae0
	.uleb128 0x1
	.long	0x3bdc
	.byte	0
	.uleb128 0x3
	.ascii "wcscat\0"
	.byte	0x2e
	.byte	0x82
	.byte	0xa
	.long	0x3ada
	.long	0x3e0f
	.uleb128 0x1
	.long	0x3ada
	.uleb128 0x1
	.long	0x3b2c
	.byte	0
	.uleb128 0x3
	.ascii "wcscmp\0"
	.byte	0x2e
	.byte	0x84
	.byte	0x5
	.long	0x3468
	.long	0x3e2d
	.uleb128 0x1
	.long	0x3b2c
	.uleb128 0x1
	.long	0x3b2c
	.byte	0
	.uleb128 0x3
	.ascii "wcscoll\0"
	.byte	0x2e
	.byte	0x85
	.byte	0x5
	.long	0x3468
	.long	0x3e4c
	.uleb128 0x1
	.long	0x3b2c
	.uleb128 0x1
	.long	0x3b2c
	.byte	0
	.uleb128 0x3
	.ascii "wcscpy\0"
	.byte	0x2e
	.byte	0x86
	.byte	0xa
	.long	0x3ada
	.long	0x3e6a
	.uleb128 0x1
	.long	0x3ada
	.uleb128 0x1
	.long	0x3b2c
	.byte	0
	.uleb128 0x3
	.ascii "wcscspn\0"
	.byte	0x2e
	.byte	0x88
	.byte	0x8
	.long	0x3697
	.long	0x3e89
	.uleb128 0x1
	.long	0x3b2c
	.uleb128 0x1
	.long	0x3b2c
	.byte	0
	.uleb128 0xa
	.ascii "wcsftime\0"
	.byte	0x2e
	.byte	0x89
	.byte	0x8
	.ascii "_wcsftime\0"
	.long	0x3697
	.long	0x3ebd
	.uleb128 0x1
	.long	0x3ada
	.uleb128 0x1
	.long	0x3697
	.uleb128 0x1
	.long	0x3b2c
	.uleb128 0x1
	.long	0x3ebd
	.byte	0
	.uleb128 0x7
	.byte	0x8
	.long	0x3a55
	.uleb128 0x3
	.ascii "wcslen\0"
	.byte	0x2e
	.byte	0x8c
	.byte	0x8
	.long	0x3697
	.long	0x3edc
	.uleb128 0x1
	.long	0x3b2c
	.byte	0
	.uleb128 0x3
	.ascii "wcsncat\0"
	.byte	0x2e
	.byte	0x8e
	.byte	0x3
	.long	0x3ada
	.long	0x3f00
	.uleb128 0x1
	.long	0x3ada
	.uleb128 0x1
	.long	0x3b2c
	.uleb128 0x1
	.long	0x3697
	.byte	0
	.uleb128 0x3
	.ascii "wcsncmp\0"
	.byte	0x2e
	.byte	0x91
	.byte	0x5
	.long	0x3468
	.long	0x3f24
	.uleb128 0x1
	.long	0x3b2c
	.uleb128 0x1
	.long	0x3b2c
	.uleb128 0x1
	.long	0x3697
	.byte	0
	.uleb128 0x3
	.ascii "wcsncpy\0"
	.byte	0x2e
	.byte	0x94
	.byte	0x3
	.long	0x3ada
	.long	0x3f48
	.uleb128 0x1
	.long	0x3ada
	.uleb128 0x1
	.long	0x3b2c
	.uleb128 0x1
	.long	0x3697
	.byte	0
	.uleb128 0x3
	.ascii "wcsrtombs\0"
	.byte	0x2e
	.byte	0x99
	.byte	0x8
	.long	0x3697
	.long	0x3f73
	.uleb128 0x1
	.long	0x38d6
	.uleb128 0x1
	.long	0x3f73
	.uleb128 0x1
	.long	0x3697
	.uleb128 0x1
	.long	0x3bdc
	.byte	0
	.uleb128 0x7
	.byte	0x8
	.long	0x3b2c
	.uleb128 0x3
	.ascii "wcsspn\0"
	.byte	0x2e
	.byte	0x9b
	.byte	0x8
	.long	0x3697
	.long	0x3f97
	.uleb128 0x1
	.long	0x3b2c
	.uleb128 0x1
	.long	0x3b2c
	.byte	0
	.uleb128 0x3
	.ascii "wcstod\0"
	.byte	0x2e
	.byte	0xa0
	.byte	0x8
	.long	0x3fb5
	.long	0x3fb5
	.uleb128 0x1
	.long	0x3b2c
	.uleb128 0x1
	.long	0x3fbf
	.byte	0
	.uleb128 0xd
	.byte	0x8
	.byte	0x4
	.ascii "double\0"
	.uleb128 0x7
	.byte	0x8
	.long	0x3ada
	.uleb128 0x3
	.ascii "wcstof\0"
	.byte	0x2e
	.byte	0xc8
	.byte	0x7
	.long	0x3fe3
	.long	0x3fe3
	.uleb128 0x1
	.long	0x3b2c
	.uleb128 0x1
	.long	0x3fbf
	.byte	0
	.uleb128 0xd
	.byte	0x4
	.byte	0x4
	.ascii "float\0"
	.uleb128 0x3
	.ascii "wcstok\0"
	.byte	0x2e
	.byte	0xa2
	.byte	0x3
	.long	0x3ada
	.long	0x400f
	.uleb128 0x1
	.long	0x3ada
	.uleb128 0x1
	.long	0x3b2c
	.uleb128 0x1
	.long	0x3fbf
	.byte	0
	.uleb128 0x3
	.ascii "wcstol\0"
	.byte	0x2e
	.byte	0xa4
	.byte	0x7
	.long	0x34f3
	.long	0x4032
	.uleb128 0x1
	.long	0x3b2c
	.uleb128 0x1
	.long	0x3fbf
	.uleb128 0x1
	.long	0x3468
	.byte	0
	.uleb128 0x3
	.ascii "wcstoul\0"
	.byte	0x2e
	.byte	0xa7
	.byte	0x3
	.long	0x3551
	.long	0x4056
	.uleb128 0x1
	.long	0x3b2c
	.uleb128 0x1
	.long	0x3fbf
	.uleb128 0x1
	.long	0x3468
	.byte	0
	.uleb128 0x3
	.ascii "wcsxfrm\0"
	.byte	0x2e
	.byte	0x9d
	.byte	0x8
	.long	0x3697
	.long	0x407a
	.uleb128 0x1
	.long	0x3ada
	.uleb128 0x1
	.long	0x3b2c
	.uleb128 0x1
	.long	0x3697
	.byte	0
	.uleb128 0x3
	.ascii "wctob\0"
	.byte	0x2e
	.byte	0x9f
	.byte	0x5
	.long	0x3468
	.long	0x4092
	.uleb128 0x1
	.long	0x3a5a
	.byte	0
	.uleb128 0x3
	.ascii "wmemcmp\0"
	.byte	0x2e
	.byte	0xaa
	.byte	0x5
	.long	0x3468
	.long	0x40b6
	.uleb128 0x1
	.long	0x3b2c
	.uleb128 0x1
	.long	0x3b2c
	.uleb128 0x1
	.long	0x3697
	.byte	0
	.uleb128 0x3
	.ascii "wmemcpy\0"
	.byte	0x2e
	.byte	0xad
	.byte	0x3
	.long	0x3ada
	.long	0x40da
	.uleb128 0x1
	.long	0x3ada
	.uleb128 0x1
	.long	0x3b2c
	.uleb128 0x1
	.long	0x3697
	.byte	0
	.uleb128 0x3
	.ascii "wmemmove\0"
	.byte	0x2e
	.byte	0xb0
	.byte	0x3
	.long	0x3ada
	.long	0x40ff
	.uleb128 0x1
	.long	0x3ada
	.uleb128 0x1
	.long	0x3b2c
	.uleb128 0x1
	.long	0x3697
	.byte	0
	.uleb128 0x3
	.ascii "wmemset\0"
	.byte	0x2e
	.byte	0xb3
	.byte	0x3
	.long	0x3ada
	.long	0x4123
	.uleb128 0x1
	.long	0x3ada
	.uleb128 0x1
	.long	0x3ae0
	.uleb128 0x1
	.long	0x3697
	.byte	0
	.uleb128 0x3
	.ascii "wprintf\0"
	.byte	0x2e
	.byte	0xb4
	.byte	0x5
	.long	0x3468
	.long	0x413e
	.uleb128 0x1
	.long	0x3b2c
	.uleb128 0x1e
	.byte	0
	.uleb128 0x3
	.ascii "wscanf\0"
	.byte	0x2e
	.byte	0xb5
	.byte	0x5
	.long	0x3468
	.long	0x4158
	.uleb128 0x1
	.long	0x3b2c
	.uleb128 0x1e
	.byte	0
	.uleb128 0x3
	.ascii "wcschr\0"
	.byte	0x2e
	.byte	0x83
	.byte	0xa
	.long	0x3ada
	.long	0x4176
	.uleb128 0x1
	.long	0x3b2c
	.uleb128 0x1
	.long	0x3ae0
	.byte	0
	.uleb128 0x3
	.ascii "wcspbrk\0"
	.byte	0x2e
	.byte	0x97
	.byte	0xa
	.long	0x3ada
	.long	0x4195
	.uleb128 0x1
	.long	0x3b2c
	.uleb128 0x1
	.long	0x3b2c
	.byte	0
	.uleb128 0x3
	.ascii "wcsrchr\0"
	.byte	0x2e
	.byte	0x98
	.byte	0xa
	.long	0x3ada
	.long	0x41b4
	.uleb128 0x1
	.long	0x3b2c
	.uleb128 0x1
	.long	0x3ae0
	.byte	0
	.uleb128 0x3
	.ascii "wcsstr\0"
	.byte	0x2e
	.byte	0x9c
	.byte	0xa
	.long	0x3ada
	.long	0x41d2
	.uleb128 0x1
	.long	0x3b2c
	.uleb128 0x1
	.long	0x3b2c
	.byte	0
	.uleb128 0x3
	.ascii "wmemchr\0"
	.byte	0x2e
	.byte	0xa9
	.byte	0x3
	.long	0x3ada
	.long	0x41f6
	.uleb128 0x1
	.long	0x3b2c
	.uleb128 0x1
	.long	0x3ae0
	.uleb128 0x1
	.long	0x3697
	.byte	0
	.uleb128 0x3
	.ascii "wcstold\0"
	.byte	0x2e
	.byte	0xca
	.byte	0x2
	.long	0x4215
	.long	0x4215
	.uleb128 0x1
	.long	0x3b2c
	.uleb128 0x1
	.long	0x3fbf
	.byte	0
	.uleb128 0xd
	.byte	0x8
	.byte	0x4
	.ascii "long double\0"
	.uleb128 0x3
	.ascii "wcstoll\0"
	.byte	0x2e
	.byte	0xcd
	.byte	0x2
	.long	0x34a9
	.long	0x4248
	.uleb128 0x1
	.long	0x3b2c
	.uleb128 0x1
	.long	0x3fbf
	.uleb128 0x1
	.long	0x3468
	.byte	0
	.uleb128 0x3
	.ascii "wcstoull\0"
	.byte	0x2e
	.byte	0xcf
	.byte	0x2
	.long	0x34bf
	.long	0x426d
	.uleb128 0x1
	.long	0x3b2c
	.uleb128 0x1
	.long	0x3fbf
	.uleb128 0x1
	.long	0x3468
	.byte	0
	.uleb128 0xd
	.byte	0x10
	.byte	0x4
	.ascii "__float128\0"
	.uleb128 0x7d
	.ascii "decltype(nullptr)\0"
	.uleb128 0xd
	.byte	0x1
	.byte	0x2
	.ascii "bool\0"
	.uleb128 0x8
	.long	0x428e
	.uleb128 0x7
	.byte	0x8
	.long	0x3be
	.uleb128 0x7
	.byte	0x8
	.long	0x48c
	.uleb128 0xd
	.byte	0x2
	.byte	0x10
	.ascii "char16_t\0"
	.uleb128 0xd
	.byte	0x4
	.byte	0x10
	.ascii "char32_t\0"
	.uleb128 0x7
	.byte	0x8
	.long	0x4d2
	.uleb128 0x7
	.byte	0x8
	.long	0x936
	.uleb128 0xe
	.byte	0x8
	.long	0x936
	.uleb128 0x7e
	.byte	0x8
	.long	0x4d2
	.uleb128 0xe
	.byte	0x8
	.long	0x4d2
	.uleb128 0x7
	.byte	0x8
	.long	0xa0e
	.uleb128 0xe
	.byte	0x8
	.long	0xa75
	.uleb128 0xe
	.byte	0x8
	.long	0xa88
	.uleb128 0x7
	.byte	0x8
	.long	0xa88
	.uleb128 0x7
	.byte	0x8
	.long	0xa75
	.uleb128 0xe
	.byte	0x8
	.long	0xcf7
	.uleb128 0x11
	.ascii "lconv\0"
	.byte	0x60
	.byte	0x2f
	.byte	0x2e
	.byte	0x8
	.long	0x4553
	.uleb128 0x4
	.ascii "decimal_point\0"
	.byte	0x2f
	.byte	0x2f
	.byte	0x13
	.long	0x38d6
	.byte	0
	.uleb128 0x4
	.ascii "thousands_sep\0"
	.byte	0x2f
	.byte	0x30
	.byte	0x13
	.long	0x38d6
	.byte	0x8
	.uleb128 0x4
	.ascii "grouping\0"
	.byte	0x2f
	.byte	0x31
	.byte	0x13
	.long	0x38d6
	.byte	0x10
	.uleb128 0x4
	.ascii "int_curr_symbol\0"
	.byte	0x2f
	.byte	0x32
	.byte	0x13
	.long	0x38d6
	.byte	0x18
	.uleb128 0x4
	.ascii "currency_symbol\0"
	.byte	0x2f
	.byte	0x33
	.byte	0x13
	.long	0x38d6
	.byte	0x20
	.uleb128 0x4
	.ascii "mon_decimal_point\0"
	.byte	0x2f
	.byte	0x34
	.byte	0x13
	.long	0x38d6
	.byte	0x28
	.uleb128 0x4
	.ascii "mon_thousands_sep\0"
	.byte	0x2f
	.byte	0x35
	.byte	0x13
	.long	0x38d6
	.byte	0x30
	.uleb128 0x4
	.ascii "mon_grouping\0"
	.byte	0x2f
	.byte	0x36
	.byte	0x13
	.long	0x38d6
	.byte	0x38
	.uleb128 0x4
	.ascii "positive_sign\0"
	.byte	0x2f
	.byte	0x37
	.byte	0x13
	.long	0x38d6
	.byte	0x40
	.uleb128 0x4
	.ascii "negative_sign\0"
	.byte	0x2f
	.byte	0x38
	.byte	0x13
	.long	0x38d6
	.byte	0x48
	.uleb128 0x4
	.ascii "int_frac_digits\0"
	.byte	0x2f
	.byte	0x39
	.byte	0x7
	.long	0x356b
	.byte	0x50
	.uleb128 0x4
	.ascii "frac_digits\0"
	.byte	0x2f
	.byte	0x3a
	.byte	0x7
	.long	0x356b
	.byte	0x51
	.uleb128 0x4
	.ascii "p_cs_precedes\0"
	.byte	0x2f
	.byte	0x3b
	.byte	0x7
	.long	0x356b
	.byte	0x52
	.uleb128 0x4
	.ascii "p_sep_by_space\0"
	.byte	0x2f
	.byte	0x3c
	.byte	0x7
	.long	0x356b
	.byte	0x53
	.uleb128 0x4
	.ascii "n_cs_precedes\0"
	.byte	0x2f
	.byte	0x3d
	.byte	0x7
	.long	0x356b
	.byte	0x54
	.uleb128 0x4
	.ascii "n_sep_by_space\0"
	.byte	0x2f
	.byte	0x3e
	.byte	0x7
	.long	0x356b
	.byte	0x55
	.uleb128 0x4
	.ascii "p_sign_posn\0"
	.byte	0x2f
	.byte	0x3f
	.byte	0x7
	.long	0x356b
	.byte	0x56
	.uleb128 0x4
	.ascii "n_sign_posn\0"
	.byte	0x2f
	.byte	0x40
	.byte	0x7
	.long	0x356b
	.byte	0x57
	.uleb128 0x4
	.ascii "int_p_cs_precedes\0"
	.byte	0x2f
	.byte	0x41
	.byte	0x7
	.long	0x356b
	.byte	0x58
	.uleb128 0x4
	.ascii "int_n_cs_precedes\0"
	.byte	0x2f
	.byte	0x42
	.byte	0x7
	.long	0x356b
	.byte	0x59
	.uleb128 0x4
	.ascii "int_p_sep_by_space\0"
	.byte	0x2f
	.byte	0x43
	.byte	0x7
	.long	0x356b
	.byte	0x5a
	.uleb128 0x4
	.ascii "int_n_sep_by_space\0"
	.byte	0x2f
	.byte	0x44
	.byte	0x7
	.long	0x356b
	.byte	0x5b
	.uleb128 0x4
	.ascii "int_p_sign_posn\0"
	.byte	0x2f
	.byte	0x45
	.byte	0x7
	.long	0x356b
	.byte	0x5c
	.uleb128 0x4
	.ascii "int_n_sign_posn\0"
	.byte	0x2f
	.byte	0x46
	.byte	0x7
	.long	0x356b
	.byte	0x5d
	.byte	0
	.uleb128 0x3
	.ascii "setlocale\0"
	.byte	0x30
	.byte	0x38
	.byte	0x12
	.long	0x38d6
	.long	0x4574
	.uleb128 0x1
	.long	0x3468
	.uleb128 0x1
	.long	0x391a
	.byte	0
	.uleb128 0x34
	.ascii "localeconv\0"
	.byte	0x2f
	.byte	0x63
	.byte	0xf
	.long	0x4587
	.uleb128 0x7
	.byte	0x8
	.long	0x4301
	.uleb128 0xa
	.ascii "isalnum\0"
	.byte	0x31
	.byte	0xd9
	.byte	0x1
	.ascii "_Z7isalnumi\0"
	.long	0x3468
	.long	0x45b3
	.uleb128 0x1
	.long	0x3468
	.byte	0
	.uleb128 0xa
	.ascii "isalpha\0"
	.byte	0x31
	.byte	0xdf
	.byte	0x1
	.ascii "_Z7isalphai\0"
	.long	0x3468
	.long	0x45d9
	.uleb128 0x1
	.long	0x3468
	.byte	0
	.uleb128 0xa
	.ascii "iscntrl\0"
	.byte	0x31
	.byte	0xeb
	.byte	0x1
	.ascii "_Z7iscntrli\0"
	.long	0x3468
	.long	0x45ff
	.uleb128 0x1
	.long	0x3468
	.byte	0
	.uleb128 0xa
	.ascii "isdigit\0"
	.byte	0x31
	.byte	0xf2
	.byte	0x1
	.ascii "_Z7isdigiti\0"
	.long	0x3468
	.long	0x4625
	.uleb128 0x1
	.long	0x3468
	.byte	0
	.uleb128 0xa
	.ascii "isgraph\0"
	.byte	0x31
	.byte	0xf8
	.byte	0x1
	.ascii "_Z7isgraphi\0"
	.long	0x3468
	.long	0x464b
	.uleb128 0x1
	.long	0x3468
	.byte	0
	.uleb128 0xa
	.ascii "islower\0"
	.byte	0x31
	.byte	0xfe
	.byte	0x1
	.ascii "_Z7isloweri\0"
	.long	0x3468
	.long	0x4671
	.uleb128 0x1
	.long	0x3468
	.byte	0
	.uleb128 0xc
	.ascii "isprint\0"
	.byte	0x31
	.short	0x104
	.byte	0x1
	.ascii "_Z7isprinti\0"
	.long	0x3468
	.long	0x4698
	.uleb128 0x1
	.long	0x3468
	.byte	0
	.uleb128 0xc
	.ascii "ispunct\0"
	.byte	0x31
	.short	0x10a
	.byte	0x1
	.ascii "_Z7ispuncti\0"
	.long	0x3468
	.long	0x46bf
	.uleb128 0x1
	.long	0x3468
	.byte	0
	.uleb128 0xc
	.ascii "isspace\0"
	.byte	0x31
	.short	0x110
	.byte	0x1
	.ascii "_Z7isspacei\0"
	.long	0x3468
	.long	0x46e6
	.uleb128 0x1
	.long	0x3468
	.byte	0
	.uleb128 0xc
	.ascii "isupper\0"
	.byte	0x31
	.short	0x116
	.byte	0x1
	.ascii "_Z7isupperi\0"
	.long	0x3468
	.long	0x470d
	.uleb128 0x1
	.long	0x3468
	.byte	0
	.uleb128 0xc
	.ascii "isxdigit\0"
	.byte	0x31
	.short	0x11d
	.byte	0x1
	.ascii "_Z8isxdigiti\0"
	.long	0x3468
	.long	0x4736
	.uleb128 0x1
	.long	0x3468
	.byte	0
	.uleb128 0xc
	.ascii "tolower\0"
	.byte	0x31
	.short	0x129
	.byte	0x1
	.ascii "_Z7toloweri\0"
	.long	0x3468
	.long	0x475d
	.uleb128 0x1
	.long	0x3468
	.byte	0
	.uleb128 0xc
	.ascii "toupper\0"
	.byte	0x31
	.short	0x12f
	.byte	0x1
	.ascii "_Z7toupperi\0"
	.long	0x3468
	.long	0x4784
	.uleb128 0x1
	.long	0x3468
	.byte	0
	.uleb128 0xa
	.ascii "isblank\0"
	.byte	0x31
	.byte	0xe5
	.byte	0x1
	.ascii "_Z7isblanki\0"
	.long	0x3468
	.long	0x47aa
	.uleb128 0x1
	.long	0x3468
	.byte	0
	.uleb128 0x5
	.ascii "_Atomic_word\0"
	.byte	0x32
	.byte	0x20
	.byte	0xd
	.long	0x3468
	.uleb128 0x7
	.byte	0x8
	.long	0x47c5
	.uleb128 0x7f
	.uleb128 0x35
	.long	0xea3
	.uleb128 0x7
	.byte	0x8
	.long	0xeb5
	.uleb128 0x35
	.long	0xefb
	.uleb128 0x27
	.ascii "__gnu_debug\0"
	.byte	0x33
	.short	0xba7
	.byte	0xb
	.long	0x47f4
	.uleb128 0x47
	.byte	0xe
	.byte	0x3a
	.byte	0x18
	.long	0xf19
	.byte	0
	.uleb128 0xd
	.byte	0x10
	.byte	0x7
	.ascii "__int128 unsigned\0"
	.uleb128 0x5
	.ascii "uint8_t\0"
	.byte	0x34
	.byte	0x1f
	.byte	0x17
	.long	0x342a
	.uleb128 0x5
	.ascii "uint16_t\0"
	.byte	0x35
	.byte	0x1f
	.byte	0x18
	.long	0x3452
	.uleb128 0x5
	.ascii "uint32_t\0"
	.byte	0x36
	.byte	0x1f
	.byte	0x16
	.long	0x3487
	.uleb128 0x5
	.ascii "uint64_t\0"
	.byte	0x37
	.byte	0x1f
	.byte	0x1c
	.long	0x34bf
	.uleb128 0x5
	.ascii "int_least8_t\0"
	.byte	0x38
	.byte	0x1d
	.byte	0x1a
	.long	0x36ab
	.uleb128 0x5
	.ascii "int_least16_t\0"
	.byte	0x38
	.byte	0x1e
	.byte	0x19
	.long	0x36ba
	.uleb128 0x5
	.ascii "int_least32_t\0"
	.byte	0x38
	.byte	0x1f
	.byte	0x19
	.long	0x36ca
	.uleb128 0x5
	.ascii "int_least64_t\0"
	.byte	0x38
	.byte	0x20
	.byte	0x19
	.long	0x36da
	.uleb128 0x5
	.ascii "uint_least8_t\0"
	.byte	0x38
	.byte	0x21
	.byte	0x19
	.long	0x4809
	.uleb128 0x5
	.ascii "uint_least16_t\0"
	.byte	0x38
	.byte	0x22
	.byte	0x18
	.long	0x4819
	.uleb128 0x5
	.ascii "uint_least32_t\0"
	.byte	0x38
	.byte	0x23
	.byte	0x18
	.long	0x482a
	.uleb128 0x5
	.ascii "uint_least64_t\0"
	.byte	0x38
	.byte	0x24
	.byte	0x18
	.long	0x483b
	.uleb128 0x5
	.ascii "int_fast8_t\0"
	.byte	0x38
	.byte	0x28
	.byte	0x1b
	.long	0x36ab
	.uleb128 0x5
	.ascii "int_fast16_t\0"
	.byte	0x38
	.byte	0x29
	.byte	0x1a
	.long	0x36ba
	.uleb128 0x5
	.ascii "int_fast32_t\0"
	.byte	0x38
	.byte	0x2a
	.byte	0x1a
	.long	0x36ca
	.uleb128 0x5
	.ascii "int_fast64_t\0"
	.byte	0x38
	.byte	0x2b
	.byte	0x1a
	.long	0x36da
	.uleb128 0x5
	.ascii "uint_fast8_t\0"
	.byte	0x38
	.byte	0x2c
	.byte	0x1a
	.long	0x4809
	.uleb128 0x5
	.ascii "uint_fast16_t\0"
	.byte	0x38
	.byte	0x2d
	.byte	0x19
	.long	0x4819
	.uleb128 0x5
	.ascii "uint_fast32_t\0"
	.byte	0x38
	.byte	0x2e
	.byte	0x19
	.long	0x482a
	.uleb128 0x5
	.ascii "uint_fast64_t\0"
	.byte	0x38
	.byte	0x2f
	.byte	0x19
	.long	0x483b
	.uleb128 0x5
	.ascii "intmax_t\0"
	.byte	0x39
	.byte	0x20
	.byte	0x19
	.long	0x34f3
	.uleb128 0x8
	.long	0x49a8
	.uleb128 0x5
	.ascii "uintmax_t\0"
	.byte	0x3a
	.byte	0x20
	.byte	0x1a
	.long	0x3551
	.uleb128 0x36
	.byte	0x8
	.byte	0x3b
	.byte	0x66
	.byte	0x10
	.ascii "5div_t\0"
	.long	0x49fc
	.uleb128 0x4
	.ascii "quot\0"
	.byte	0x3b
	.byte	0x67
	.byte	0x6
	.long	0x3468
	.byte	0
	.uleb128 0x4
	.ascii "rem\0"
	.byte	0x3b
	.byte	0x68
	.byte	0x6
	.long	0x3468
	.byte	0x4
	.byte	0
	.uleb128 0x5
	.ascii "div_t\0"
	.byte	0x3b
	.byte	0x69
	.byte	0x3
	.long	0x49d0
	.uleb128 0x36
	.byte	0x10
	.byte	0x3b
	.byte	0x6b
	.byte	0x10
	.ascii "6ldiv_t\0"
	.long	0x4a37
	.uleb128 0x4
	.ascii "quot\0"
	.byte	0x3b
	.byte	0x6c
	.byte	0x7
	.long	0x34f3
	.byte	0
	.uleb128 0x4
	.ascii "rem\0"
	.byte	0x3b
	.byte	0x6d
	.byte	0x7
	.long	0x34f3
	.byte	0x8
	.byte	0
	.uleb128 0x5
	.ascii "ldiv_t\0"
	.byte	0x3b
	.byte	0x6e
	.byte	0x3
	.long	0x4a0a
	.uleb128 0x36
	.byte	0x10
	.byte	0x3b
	.byte	0x71
	.byte	0x10
	.ascii "7lldiv_t\0"
	.long	0x4a74
	.uleb128 0x4
	.ascii "quot\0"
	.byte	0x3b
	.byte	0x72
	.byte	0xc
	.long	0x34a9
	.byte	0
	.uleb128 0x4
	.ascii "rem\0"
	.byte	0x3b
	.byte	0x73
	.byte	0xc
	.long	0x34a9
	.byte	0x8
	.byte	0
	.uleb128 0x5
	.ascii "lldiv_t\0"
	.byte	0x3b
	.byte	0x74
	.byte	0x3
	.long	0x4a46
	.uleb128 0x3
	.ascii "atexit\0"
	.byte	0x3b
	.byte	0x90
	.byte	0x6
	.long	0x3468
	.long	0x4a9d
	.uleb128 0x1
	.long	0x4a9d
	.byte	0
	.uleb128 0x7
	.byte	0x8
	.long	0x4aa3
	.uleb128 0x80
	.uleb128 0x3
	.ascii "at_quick_exit\0"
	.byte	0x3b
	.byte	0x93
	.byte	0x5
	.long	0x3468
	.long	0x4ac5
	.uleb128 0x1
	.long	0x4a9d
	.byte	0
	.uleb128 0x3
	.ascii "atof\0"
	.byte	0x3b
	.byte	0x95
	.byte	0x9
	.long	0x3fb5
	.long	0x4adc
	.uleb128 0x1
	.long	0x391a
	.byte	0
	.uleb128 0x3
	.ascii "atoi\0"
	.byte	0x3b
	.byte	0x96
	.byte	0x6
	.long	0x3468
	.long	0x4af3
	.uleb128 0x1
	.long	0x391a
	.byte	0
	.uleb128 0x3
	.ascii "atol\0"
	.byte	0x3b
	.byte	0x97
	.byte	0x7
	.long	0x34f3
	.long	0x4b0a
	.uleb128 0x1
	.long	0x391a
	.byte	0
	.uleb128 0x3
	.ascii "bsearch\0"
	.byte	0x3b
	.byte	0x9c
	.byte	0x7
	.long	0x3660
	.long	0x4b38
	.uleb128 0x1
	.long	0x47bf
	.uleb128 0x1
	.long	0x47bf
	.uleb128 0x1
	.long	0x3697
	.uleb128 0x1
	.long	0x3697
	.uleb128 0x1
	.long	0x4b38
	.byte	0
	.uleb128 0x7
	.byte	0x8
	.long	0x4b3e
	.uleb128 0x1c
	.long	0x3468
	.long	0x4b52
	.uleb128 0x1
	.long	0x47bf
	.uleb128 0x1
	.long	0x47bf
	.byte	0
	.uleb128 0x3
	.ascii "div\0"
	.byte	0x3b
	.byte	0x9f
	.byte	0x8
	.long	0x49fc
	.long	0x4b6d
	.uleb128 0x1
	.long	0x3468
	.uleb128 0x1
	.long	0x3468
	.byte	0
	.uleb128 0x3
	.ascii "getenv\0"
	.byte	0x3b
	.byte	0xa2
	.byte	0x12
	.long	0x38d6
	.long	0x4b86
	.uleb128 0x1
	.long	0x391a
	.byte	0
	.uleb128 0x3
	.ascii "ldiv\0"
	.byte	0x3b
	.byte	0xa4
	.byte	0x9
	.long	0x4a37
	.long	0x4ba2
	.uleb128 0x1
	.long	0x34f3
	.uleb128 0x1
	.long	0x34f3
	.byte	0
	.uleb128 0x3
	.ascii "mblen\0"
	.byte	0x3b
	.byte	0xab
	.byte	0x6
	.long	0x3468
	.long	0x4bbf
	.uleb128 0x1
	.long	0x391a
	.uleb128 0x1
	.long	0x3697
	.byte	0
	.uleb128 0x3
	.ascii "mbstowcs\0"
	.byte	0x3b
	.byte	0xac
	.byte	0x9
	.long	0x3697
	.long	0x4be4
	.uleb128 0x1
	.long	0x3ada
	.uleb128 0x1
	.long	0x391a
	.uleb128 0x1
	.long	0x3697
	.byte	0
	.uleb128 0x3
	.ascii "mbtowc\0"
	.byte	0x3b
	.byte	0xad
	.byte	0x6
	.long	0x3468
	.long	0x4c07
	.uleb128 0x1
	.long	0x3ada
	.uleb128 0x1
	.long	0x391a
	.uleb128 0x1
	.long	0x3697
	.byte	0
	.uleb128 0x2d
	.ascii "qsort\0"
	.byte	0x3b
	.byte	0xaf
	.byte	0x7
	.long	0x4c2a
	.uleb128 0x1
	.long	0x3660
	.uleb128 0x1
	.long	0x3697
	.uleb128 0x1
	.long	0x3697
	.uleb128 0x1
	.long	0x4b38
	.byte	0
	.uleb128 0x2d
	.ascii "quick_exit\0"
	.byte	0x3b
	.byte	0xb3
	.byte	0x6
	.long	0x4c43
	.uleb128 0x1
	.long	0x3468
	.byte	0
	.uleb128 0x34
	.ascii "rand\0"
	.byte	0x3b
	.byte	0xb5
	.byte	0x6
	.long	0x3468
	.uleb128 0x2d
	.ascii "srand\0"
	.byte	0x3b
	.byte	0xb7
	.byte	0x7
	.long	0x4c64
	.uleb128 0x1
	.long	0x3487
	.byte	0
	.uleb128 0xa
	.ascii "strtod\0"
	.byte	0x3b
	.byte	0xb8
	.byte	0x9
	.ascii "_strtod\0"
	.long	0x3fb5
	.long	0x4c8a
	.uleb128 0x1
	.long	0x391a
	.uleb128 0x1
	.long	0x3a80
	.byte	0
	.uleb128 0x3
	.ascii "strtol\0"
	.byte	0x3b
	.byte	0xba
	.byte	0x7
	.long	0x34f3
	.long	0x4cad
	.uleb128 0x1
	.long	0x391a
	.uleb128 0x1
	.long	0x3a80
	.uleb128 0x1
	.long	0x3468
	.byte	0
	.uleb128 0x3
	.ascii "strtoul\0"
	.byte	0x3b
	.byte	0xc2
	.byte	0x3
	.long	0x3551
	.long	0x4cd1
	.uleb128 0x1
	.long	0x391a
	.uleb128 0x1
	.long	0x3a80
	.uleb128 0x1
	.long	0x3468
	.byte	0
	.uleb128 0xa
	.ascii "system\0"
	.byte	0x3b
	.byte	0xcb
	.byte	0x6
	.ascii "_system\0"
	.long	0x3468
	.long	0x4cf2
	.uleb128 0x1
	.long	0x391a
	.byte	0
	.uleb128 0x3
	.ascii "wcstombs\0"
	.byte	0x3b
	.byte	0xce
	.byte	0x9
	.long	0x3697
	.long	0x4d17
	.uleb128 0x1
	.long	0x38d6
	.uleb128 0x1
	.long	0x3b2c
	.uleb128 0x1
	.long	0x3697
	.byte	0
	.uleb128 0x3
	.ascii "wctomb\0"
	.byte	0x3b
	.byte	0xcf
	.byte	0x6
	.long	0x3468
	.long	0x4d35
	.uleb128 0x1
	.long	0x38d6
	.uleb128 0x1
	.long	0x3ae0
	.byte	0
	.uleb128 0x3
	.ascii "lldiv\0"
	.byte	0x3b
	.byte	0xa8
	.byte	0xa
	.long	0x4a74
	.long	0x4d52
	.uleb128 0x1
	.long	0x34a9
	.uleb128 0x1
	.long	0x34a9
	.byte	0
	.uleb128 0x3
	.ascii "atoll\0"
	.byte	0x3b
	.byte	0x9a
	.byte	0x3
	.long	0x34a9
	.long	0x4d6a
	.uleb128 0x1
	.long	0x391a
	.byte	0
	.uleb128 0x3
	.ascii "strtoll\0"
	.byte	0x3b
	.byte	0xbf
	.byte	0x3
	.long	0x34a9
	.long	0x4d8e
	.uleb128 0x1
	.long	0x391a
	.uleb128 0x1
	.long	0x3a80
	.uleb128 0x1
	.long	0x3468
	.byte	0
	.uleb128 0x3
	.ascii "strtoull\0"
	.byte	0x3b
	.byte	0xc5
	.byte	0x3
	.long	0x34bf
	.long	0x4db3
	.uleb128 0x1
	.long	0x391a
	.uleb128 0x1
	.long	0x3a80
	.uleb128 0x1
	.long	0x3468
	.byte	0
	.uleb128 0xa
	.ascii "strtof\0"
	.byte	0x3b
	.byte	0xb9
	.byte	0x8
	.ascii "_strtof\0"
	.long	0x3fe3
	.long	0x4dd9
	.uleb128 0x1
	.long	0x391a
	.uleb128 0x1
	.long	0x3a80
	.byte	0
	.uleb128 0x3
	.ascii "strtold\0"
	.byte	0x3b
	.byte	0xbc
	.byte	0x3
	.long	0x4215
	.long	0x4df8
	.uleb128 0x1
	.long	0x391a
	.uleb128 0x1
	.long	0x3a80
	.byte	0
	.uleb128 0x2d
	.ascii "clearerr\0"
	.byte	0x28
	.byte	0xf1
	.byte	0x7
	.long	0x4e0f
	.uleb128 0x1
	.long	0x3963
	.byte	0
	.uleb128 0x3
	.ascii "fclose\0"
	.byte	0x28
	.byte	0xf2
	.byte	0x6
	.long	0x3468
	.long	0x4e28
	.uleb128 0x1
	.long	0x3963
	.byte	0
	.uleb128 0x3
	.ascii "feof\0"
	.byte	0x28
	.byte	0xf3
	.byte	0x6
	.long	0x3468
	.long	0x4e3f
	.uleb128 0x1
	.long	0x3963
	.byte	0
	.uleb128 0x3
	.ascii "ferror\0"
	.byte	0x28
	.byte	0xf4
	.byte	0x6
	.long	0x3468
	.long	0x4e58
	.uleb128 0x1
	.long	0x3963
	.byte	0
	.uleb128 0x3
	.ascii "fflush\0"
	.byte	0x28
	.byte	0xf5
	.byte	0x6
	.long	0x3468
	.long	0x4e71
	.uleb128 0x1
	.long	0x3963
	.byte	0
	.uleb128 0x3
	.ascii "fgetc\0"
	.byte	0x28
	.byte	0xf6
	.byte	0x6
	.long	0x3468
	.long	0x4e89
	.uleb128 0x1
	.long	0x3963
	.byte	0
	.uleb128 0x3
	.ascii "fgetpos\0"
	.byte	0x28
	.byte	0xf7
	.byte	0x6
	.long	0x3468
	.long	0x4ea8
	.uleb128 0x1
	.long	0x3963
	.uleb128 0x1
	.long	0x4ea8
	.byte	0
	.uleb128 0x7
	.byte	0x8
	.long	0x3724
	.uleb128 0x3
	.ascii "fgets\0"
	.byte	0x28
	.byte	0xf8
	.byte	0x12
	.long	0x38d6
	.long	0x4ed0
	.uleb128 0x1
	.long	0x38d6
	.uleb128 0x1
	.long	0x3468
	.uleb128 0x1
	.long	0x3963
	.byte	0
	.uleb128 0xa
	.ascii "fopen\0"
	.byte	0x28
	.byte	0xfc
	.byte	0x7
	.ascii "_fopen\0"
	.long	0x3963
	.long	0x4ef4
	.uleb128 0x1
	.long	0x391a
	.uleb128 0x1
	.long	0x391a
	.byte	0
	.uleb128 0x15
	.ascii "fread\0"
	.byte	0x28
	.short	0x101
	.byte	0x9
	.long	0x3697
	.long	0x4f1c
	.uleb128 0x1
	.long	0x3660
	.uleb128 0x1
	.long	0x3697
	.uleb128 0x1
	.long	0x3697
	.uleb128 0x1
	.long	0x3963
	.byte	0
	.uleb128 0xc
	.ascii "freopen\0"
	.byte	0x28
	.short	0x102
	.byte	0x7
	.ascii "_freopen\0"
	.long	0x3963
	.long	0x4f4a
	.uleb128 0x1
	.long	0x391a
	.uleb128 0x1
	.long	0x391a
	.uleb128 0x1
	.long	0x3963
	.byte	0
	.uleb128 0x15
	.ascii "fseek\0"
	.byte	0x28
	.short	0x105
	.byte	0x6
	.long	0x3468
	.long	0x4f6d
	.uleb128 0x1
	.long	0x3963
	.uleb128 0x1
	.long	0x34f3
	.uleb128 0x1
	.long	0x3468
	.byte	0
	.uleb128 0x15
	.ascii "fsetpos\0"
	.byte	0x28
	.short	0x106
	.byte	0x6
	.long	0x3468
	.long	0x4f8d
	.uleb128 0x1
	.long	0x3963
	.uleb128 0x1
	.long	0x4f8d
	.byte	0
	.uleb128 0x7
	.byte	0x8
	.long	0x3733
	.uleb128 0x15
	.ascii "ftell\0"
	.byte	0x28
	.short	0x107
	.byte	0x7
	.long	0x34f3
	.long	0x4fac
	.uleb128 0x1
	.long	0x3963
	.byte	0
	.uleb128 0x15
	.ascii "getc\0"
	.byte	0x28
	.short	0x109
	.byte	0x6
	.long	0x3468
	.long	0x4fc4
	.uleb128 0x1
	.long	0x3963
	.byte	0
	.uleb128 0x54
	.ascii "getchar\0"
	.byte	0x28
	.short	0x10a
	.byte	0x6
	.long	0x3468
	.uleb128 0x15
	.ascii "gets\0"
	.byte	0x28
	.short	0x111
	.byte	0x12
	.long	0x38d6
	.long	0x4fed
	.uleb128 0x1
	.long	0x38d6
	.byte	0
	.uleb128 0x37
	.ascii "perror\0"
	.byte	0x28
	.short	0x113
	.byte	0x7
	.long	0x5003
	.uleb128 0x1
	.long	0x391a
	.byte	0
	.uleb128 0x15
	.ascii "remove\0"
	.byte	0x28
	.short	0x117
	.byte	0x6
	.long	0x3468
	.long	0x501d
	.uleb128 0x1
	.long	0x391a
	.byte	0
	.uleb128 0x15
	.ascii "rename\0"
	.byte	0x28
	.short	0x118
	.byte	0x6
	.long	0x3468
	.long	0x503c
	.uleb128 0x1
	.long	0x391a
	.uleb128 0x1
	.long	0x391a
	.byte	0
	.uleb128 0x37
	.ascii "rewind\0"
	.byte	0x28
	.short	0x119
	.byte	0x7
	.long	0x5052
	.uleb128 0x1
	.long	0x3963
	.byte	0
	.uleb128 0x37
	.ascii "setbuf\0"
	.byte	0x28
	.short	0x11b
	.byte	0x7
	.long	0x506d
	.uleb128 0x1
	.long	0x3963
	.uleb128 0x1
	.long	0x38d6
	.byte	0
	.uleb128 0x15
	.ascii "setvbuf\0"
	.byte	0x28
	.short	0x11c
	.byte	0x6
	.long	0x3468
	.long	0x5097
	.uleb128 0x1
	.long	0x3963
	.uleb128 0x1
	.long	0x38d6
	.uleb128 0x1
	.long	0x3468
	.uleb128 0x1
	.long	0x3697
	.byte	0
	.uleb128 0x54
	.ascii "tmpfile\0"
	.byte	0x28
	.short	0x128
	.byte	0x7
	.long	0x3963
	.uleb128 0x15
	.ascii "tmpnam\0"
	.byte	0x28
	.short	0x130
	.byte	0x12
	.long	0x38d6
	.long	0x50c2
	.uleb128 0x1
	.long	0x38d6
	.byte	0
	.uleb128 0x15
	.ascii "ungetc\0"
	.byte	0x28
	.short	0x132
	.byte	0x6
	.long	0x3468
	.long	0x50e1
	.uleb128 0x1
	.long	0x3468
	.uleb128 0x1
	.long	0x3963
	.byte	0
	.uleb128 0xe
	.byte	0x8
	.long	0x127b
	.uleb128 0x7
	.byte	0x8
	.long	0x1289
	.uleb128 0x8
	.long	0x50e7
	.uleb128 0xe
	.byte	0x8
	.long	0x13a9
	.uleb128 0xe
	.byte	0x8
	.long	0x1289
	.uleb128 0x5
	.ascii "wctrans_t\0"
	.byte	0x3c
	.byte	0x20
	.byte	0x1c
	.long	0x3662
	.uleb128 0xa
	.ascii "iswalnum\0"
	.byte	0x3d
	.byte	0x54
	.byte	0x1
	.ascii "_Z8iswalnumi\0"
	.long	0x3468
	.long	0x5138
	.uleb128 0x1
	.long	0x3a5a
	.byte	0
	.uleb128 0xa
	.ascii "iswalpha\0"
	.byte	0x3d
	.byte	0x5a
	.byte	0x1
	.ascii "_Z8iswalphai\0"
	.long	0x3468
	.long	0x5160
	.uleb128 0x1
	.long	0x3a5a
	.byte	0
	.uleb128 0xa
	.ascii "iswblank\0"
	.byte	0x3e
	.byte	0x35
	.byte	0x1
	.ascii "_Z8iswblanki\0"
	.long	0x3468
	.long	0x5188
	.uleb128 0x1
	.long	0x3a5a
	.byte	0
	.uleb128 0xa
	.ascii "iswcntrl\0"
	.byte	0x3d
	.byte	0x60
	.byte	0x1
	.ascii "_Z8iswcntrli\0"
	.long	0x3468
	.long	0x51b0
	.uleb128 0x1
	.long	0x3a5a
	.byte	0
	.uleb128 0xa
	.ascii "iswctype\0"
	.byte	0x3d
	.byte	0x66
	.byte	0x1
	.ascii "_Z8iswctypeij\0"
	.long	0x3468
	.long	0x51de
	.uleb128 0x1
	.long	0x3a5a
	.uleb128 0x1
	.long	0x3a69
	.byte	0
	.uleb128 0xa
	.ascii "iswdigit\0"
	.byte	0x3d
	.byte	0x6c
	.byte	0x1
	.ascii "_Z8iswdigiti\0"
	.long	0x3468
	.long	0x5206
	.uleb128 0x1
	.long	0x3a5a
	.byte	0
	.uleb128 0xa
	.ascii "iswgraph\0"
	.byte	0x3d
	.byte	0x72
	.byte	0x1
	.ascii "_Z8iswgraphi\0"
	.long	0x3468
	.long	0x522e
	.uleb128 0x1
	.long	0x3a5a
	.byte	0
	.uleb128 0xa
	.ascii "iswlower\0"
	.byte	0x3d
	.byte	0x78
	.byte	0x1
	.ascii "_Z8iswloweri\0"
	.long	0x3468
	.long	0x5256
	.uleb128 0x1
	.long	0x3a5a
	.byte	0
	.uleb128 0xa
	.ascii "iswprint\0"
	.byte	0x3d
	.byte	0x7e
	.byte	0x1
	.ascii "_Z8iswprinti\0"
	.long	0x3468
	.long	0x527e
	.uleb128 0x1
	.long	0x3a5a
	.byte	0
	.uleb128 0xa
	.ascii "iswpunct\0"
	.byte	0x3d
	.byte	0x84
	.byte	0x1
	.ascii "_Z8iswpuncti\0"
	.long	0x3468
	.long	0x52a6
	.uleb128 0x1
	.long	0x3a5a
	.byte	0
	.uleb128 0xa
	.ascii "iswspace\0"
	.byte	0x3d
	.byte	0x8a
	.byte	0x1
	.ascii "_Z8iswspacei\0"
	.long	0x3468
	.long	0x52ce
	.uleb128 0x1
	.long	0x3a5a
	.byte	0
	.uleb128 0xa
	.ascii "iswupper\0"
	.byte	0x3d
	.byte	0x90
	.byte	0x1
	.ascii "_Z8iswupperi\0"
	.long	0x3468
	.long	0x52f6
	.uleb128 0x1
	.long	0x3a5a
	.byte	0
	.uleb128 0xa
	.ascii "iswxdigit\0"
	.byte	0x3d
	.byte	0x96
	.byte	0x1
	.ascii "_Z9iswxdigiti\0"
	.long	0x3468
	.long	0x5320
	.uleb128 0x1
	.long	0x3a5a
	.byte	0
	.uleb128 0x3
	.ascii "towctrans\0"
	.byte	0x3e
	.byte	0x7c
	.byte	0x8
	.long	0x3a5a
	.long	0x5341
	.uleb128 0x1
	.long	0x3a5a
	.uleb128 0x1
	.long	0x50fe
	.byte	0
	.uleb128 0xa
	.ascii "towlower\0"
	.byte	0x3d
	.byte	0x9c
	.byte	0x1
	.ascii "_Z8towloweri\0"
	.long	0x3a5a
	.long	0x5369
	.uleb128 0x1
	.long	0x3a5a
	.byte	0
	.uleb128 0xa
	.ascii "towupper\0"
	.byte	0x3d
	.byte	0xa2
	.byte	0x1
	.ascii "_Z8towupperi\0"
	.long	0x3a5a
	.long	0x5391
	.uleb128 0x1
	.long	0x3a5a
	.byte	0
	.uleb128 0x3
	.ascii "wctrans\0"
	.byte	0x3e
	.byte	0x7e
	.byte	0x2
	.long	0x50fe
	.long	0x53ab
	.uleb128 0x1
	.long	0x391a
	.byte	0
	.uleb128 0x3
	.ascii "wctype\0"
	.byte	0x3d
	.byte	0xbe
	.byte	0x2
	.long	0x3a69
	.long	0x53c4
	.uleb128 0x1
	.long	0x391a
	.byte	0
	.uleb128 0xe
	.byte	0x8
	.long	0x14b6
	.uleb128 0x81
	.long	0x15d0
	.uleb128 0x9
	.byte	0x3
	.quad	__ZStL8__ioinit
	.uleb128 0xd
	.byte	0x10
	.byte	0x5
	.ascii "__int128\0"
	.uleb128 0xd
	.byte	0x4
	.byte	0x4
	.ascii "_Float32\0"
	.uleb128 0xd
	.byte	0x8
	.byte	0x4
	.ascii "_Float64\0"
	.uleb128 0xd
	.byte	0x10
	.byte	0x4
	.ascii "_Float128\0"
	.uleb128 0x82
	.ascii "clock\0"
	.byte	0x2b
	.byte	0x70
	.byte	0x9
	.ascii "_clock\0"
	.long	0x3969
	.uleb128 0x3
	.ascii "difftime\0"
	.byte	0x2b
	.byte	0x72
	.byte	0x8
	.long	0x3fb5
	.long	0x5441
	.uleb128 0x1
	.long	0x3979
	.uleb128 0x1
	.long	0x3979
	.byte	0
	.uleb128 0xa
	.ascii "mktime\0"
	.byte	0x2b
	.byte	0x76
	.byte	0x8
	.ascii "_mktime\0"
	.long	0x3979
	.long	0x5462
	.uleb128 0x1
	.long	0x5462
	.byte	0
	.uleb128 0x7
	.byte	0x8
	.long	0x398d
	.uleb128 0x3
	.ascii "time\0"
	.byte	0x2b
	.byte	0x79
	.byte	0x8
	.long	0x3979
	.long	0x547f
	.uleb128 0x1
	.long	0x547f
	.byte	0
	.uleb128 0x7
	.byte	0x8
	.long	0x3979
	.uleb128 0x3
	.ascii "asctime\0"
	.byte	0x2b
	.byte	0x6f
	.byte	0x12
	.long	0x38d6
	.long	0x549f
	.uleb128 0x1
	.long	0x3ebd
	.byte	0
	.uleb128 0x3
	.ascii "ctime\0"
	.byte	0x2b
	.byte	0x71
	.byte	0x12
	.long	0x38d6
	.long	0x54b7
	.uleb128 0x1
	.long	0x54b7
	.byte	0
	.uleb128 0x7
	.byte	0x8
	.long	0x3988
	.uleb128 0x3
	.ascii "gmtime\0"
	.byte	0x2b
	.byte	0x74
	.byte	0xc
	.long	0x5462
	.long	0x54d6
	.uleb128 0x1
	.long	0x54b7
	.byte	0
	.uleb128 0x3
	.ascii "localtime\0"
	.byte	0x2b
	.byte	0x75
	.byte	0xc
	.long	0x5462
	.long	0x54f2
	.uleb128 0x1
	.long	0x54b7
	.byte	0
	.uleb128 0x7
	.byte	0x8
	.long	0x2a7c
	.uleb128 0x7
	.byte	0x8
	.long	0x2b68
	.uleb128 0x7
	.byte	0x8
	.long	0x187d
	.uleb128 0x8
	.long	0x54fe
	.uleb128 0xe
	.byte	0x8
	.long	0x1fe5
	.uleb128 0xe
	.byte	0x8
	.long	0x187d
	.uleb128 0x7
	.byte	0x8
	.long	0x1fe5
	.uleb128 0x8
	.long	0x5515
	.uleb128 0xe
	.byte	0x8
	.long	0x1a82
	.uleb128 0xe
	.byte	0x8
	.long	0x1769
	.uleb128 0x7
	.byte	0x8
	.long	0x1fea
	.uleb128 0xe
	.byte	0x8
	.long	0x2169
	.uleb128 0x7
	.byte	0x8
	.long	0x2414
	.uleb128 0x8
	.long	0x5538
	.uleb128 0xe
	.byte	0x8
	.long	0x1fea
	.uleb128 0x7
	.byte	0x8
	.long	0x2cc6
	.uleb128 0x35
	.long	0x2d06
	.uleb128 0x38
	.ascii "secret_data\0"
	.byte	0x1
	.byte	0x9
	.byte	0xf
	.long	0x342a
	.uleb128 0x9
	.byte	0x3
	.quad	_secret_data
	.uleb128 0x38
	.ascii "public_array\0"
	.byte	0x1
	.byte	0xa
	.byte	0xf
	.long	0x3650
	.uleb128 0x9
	.byte	0x3
	.quad	_public_array
	.uleb128 0x12
	.ascii "PUBLIC_ARRAY_SIZE\0"
	.byte	0x1
	.byte	0xb
	.byte	0xe
	.long	0x36a6
	.uleb128 0x9
	.byte	0x3
	.quad	__ZL17PUBLIC_ARRAY_SIZE
	.uleb128 0x25
	.long	0x342a
	.long	0x55c9
	.uleb128 0x83
	.long	0x3551
	.long	0xfffff
	.byte	0
	.uleb128 0x38
	.ascii "probe_array\0"
	.byte	0x1
	.byte	0x10
	.byte	0xf
	.long	0x55b5
	.uleb128 0x9
	.byte	0x3
	.quad	_probe_array
	.uleb128 0x7
	.byte	0x8
	.long	0x14b6
	.uleb128 0x8
	.long	0x55e7
	.uleb128 0x84
	.ascii "__dso_handle\0"
	.long	0x3660
	.uleb128 0x13
	.ascii "_ZNSt17integral_constantIbLb1EE5valueE\0"
	.long	0x31e
	.byte	0x1
	.uleb128 0x13
	.ascii "_ZNSt17integral_constantIbLb0EE5valueE\0"
	.long	0x3eb
	.byte	0
	.uleb128 0x13
	.ascii "_ZN9__gnu_cxx25__numeric_traits_floatingIfE16__max_exponent10E\0"
	.long	0x30c8
	.byte	0x26
	.uleb128 0x39
	.ascii "_ZN9__gnu_cxx25__numeric_traits_floatingIdE16__max_exponent10E\0"
	.long	0x312d
	.short	0x134
	.uleb128 0x39
	.ascii "_ZN9__gnu_cxx25__numeric_traits_floatingIeE16__max_exponent10E\0"
	.long	0x3197
	.short	0x134
	.uleb128 0x13
	.ascii "_ZN9__gnu_cxx24__numeric_traits_integerIiE11__is_signedE\0"
	.long	0x31de
	.byte	0x1
	.uleb128 0x13
	.ascii "_ZN9__gnu_cxx24__numeric_traits_integerIiE8__digitsE\0"
	.long	0x31ea
	.byte	0x1f
	.uleb128 0x55
	.ascii "_ZN9__gnu_cxx24__numeric_traits_integerIiE5__maxE\0"
	.long	0x31f6
	.long	0x7fffffff
	.uleb128 0x3a
	.ascii "_ZN9__gnu_cxx24__numeric_traits_integerIiE5__minE\0"
	.long	0x3202
	.sleb128 -2147483648
	.uleb128 0x13
	.ascii "_ZN9__gnu_cxx24__numeric_traits_integerIlE11__is_signedE\0"
	.long	0x3244
	.byte	0x1
	.uleb128 0x13
	.ascii "_ZN9__gnu_cxx24__numeric_traits_integerIlE8__digitsE\0"
	.long	0x3250
	.byte	0x3f
	.uleb128 0x85
	.ascii "_ZN9__gnu_cxx24__numeric_traits_integerIlE5__maxE\0"
	.long	0x325c
	.quad	0x7fffffffffffffff
	.uleb128 0x3a
	.ascii "_ZN9__gnu_cxx24__numeric_traits_integerIlE5__minE\0"
	.long	0x3268
	.sleb128 -9223372036854775808
	.uleb128 0x13
	.ascii "_ZN9__gnu_cxx24__numeric_traits_integerImE11__is_signedE\0"
	.long	0x331b
	.byte	0
	.uleb128 0x13
	.ascii "_ZN9__gnu_cxx24__numeric_traits_integerImE8__digitsE\0"
	.long	0x3327
	.byte	0x40
	.uleb128 0x13
	.ascii "_ZN9__gnu_cxx24__numeric_traits_integerIcE11__is_signedE\0"
	.long	0x337d
	.byte	0x1
	.uleb128 0x13
	.ascii "_ZN9__gnu_cxx24__numeric_traits_integerIcE8__digitsE\0"
	.long	0x3389
	.byte	0x7
	.uleb128 0x13
	.ascii "_ZN9__gnu_cxx24__numeric_traits_integerIcE5__maxE\0"
	.long	0x3395
	.byte	0x7f
	.uleb128 0x13
	.ascii "_ZN9__gnu_cxx24__numeric_traits_integerIsE11__is_signedE\0"
	.long	0x33e0
	.byte	0x1
	.uleb128 0x13
	.ascii "_ZN9__gnu_cxx24__numeric_traits_integerIsE8__digitsE\0"
	.long	0x33ec
	.byte	0xf
	.uleb128 0x39
	.ascii "_ZN9__gnu_cxx24__numeric_traits_integerIsE5__maxE\0"
	.long	0x33f8
	.short	0x7fff
	.uleb128 0x3a
	.ascii "_ZN9__gnu_cxx24__numeric_traits_integerIsE5__minE\0"
	.long	0x3404
	.sleb128 -32768
	.uleb128 0x1f
	.ascii "_ZNSt5ratioILl1ELl1000000000EE3numE\0"
	.long	0x2b8c
	.uleb128 0x1f
	.ascii "_ZNSt5ratioILl1ELl1000000000EE3denE\0"
	.long	0x2b9a
	.uleb128 0x13
	.ascii "_ZNSt17integral_constantIlLl1EE5valueE\0"
	.long	0x29db
	.byte	0x1
	.uleb128 0x55
	.ascii "_ZNSt17integral_constantIlLl1000000000EE5valueE\0"
	.long	0x2ab2
	.long	0x3b9aca00
	.uleb128 0x1f
	.ascii "_ZNSt5ratioILl1ELl1EE3numE\0"
	.long	0x2c93
	.uleb128 0x1f
	.ascii "_ZNSt5ratioILl1ELl1EE3denE\0"
	.long	0x2ca1
	.uleb128 0x1f
	.ascii "_ZNSt5ratioILl1000000000ELl1EE3numE\0"
	.long	0x2db0
	.uleb128 0x1f
	.ascii "_ZNSt5ratioILl1000000000ELl1EE3denE\0"
	.long	0x2dc1
	.uleb128 0x56
	.long	0x12cb
	.ascii "_ZNSt8ios_base4InitD1Ev\0"
	.long	0x5ca4
	.long	0x5cae
	.uleb128 0x26
	.set L$set$309,LASF29-Lsection__debug_str
	.long L$set$309
	.long	0x50ed
	.byte	0
	.uleb128 0x56
	.long	0x1299
	.ascii "_ZNSt8ios_base4InitC1Ev\0"
	.long	0x5cd3
	.long	0x5cdd
	.uleb128 0x26
	.set L$set$310,LASF29-Lsection__debug_str
	.long L$set$310
	.long	0x50ed
	.byte	0
	.uleb128 0x57
	.ascii "_GLOBAL__sub_I_1.cpp\0"
	.quad	LFB3173
	.set L$set$311,LFE3173-LFB3173
	.quad L$set$311
	.uleb128 0x1
	.byte	0x9c
	.uleb128 0x57
	.ascii "__static_initialization_and_destruction_0\0"
	.quad	LFB3172
	.set L$set$312,LFE3172-LFB3172
	.quad L$set$312
	.uleb128 0x1
	.byte	0x9c
	.uleb128 0x18
	.long	0x24a6
	.quad	LFB3073
	.set L$set$313,LFE3073-LFB3073
	.quad L$set$313
	.uleb128 0x1
	.byte	0x9c
	.long	0x5d91
	.uleb128 0x10
	.ascii "_Rep\0"
	.long	0x34a9
	.uleb128 0x9
	.set L$set$314,LASF14-Lsection__debug_str
	.long L$set$314
	.long	0x2b6d
	.uleb128 0x14
	.ascii "__d\0"
	.byte	0x3
	.byte	0xca
	.byte	0x2a
	.long	0x5509
	.uleb128 0x2
	.byte	0x91
	.sleb128 -24
	.uleb128 0x5
	.ascii "__to_rep\0"
	.byte	0x3
	.byte	0xcc
	.byte	0x25
	.long	0x1a74
	.byte	0
	.uleb128 0x18
	.long	0x25be
	.quad	LFB3072
	.set L$set$315,LFE3072-LFB3072
	.quad L$set$315
	.uleb128 0x1
	.byte	0x9c
	.long	0x5e05
	.uleb128 0x10
	.ascii "_Rep1\0"
	.long	0x34a9
	.uleb128 0x9
	.set L$set$316,LASF17-Lsection__debug_str
	.long L$set$316
	.long	0x2b6d
	.uleb128 0x9
	.set L$set$317,LASF13-Lsection__debug_str
	.long L$set$317
	.long	0x34a9
	.uleb128 0x9
	.set L$set$318,LASF18-Lsection__debug_str
	.long L$set$318
	.long	0x2b6d
	.uleb128 0x1b
	.ascii "__lhs\0"
	.byte	0x3
	.short	0x2ca
	.byte	0x32
	.long	0x5509
	.uleb128 0x2
	.byte	0x91
	.sleb128 -40
	.uleb128 0x1b
	.ascii "__rhs\0"
	.byte	0x3
	.short	0x2cb
	.byte	0x24
	.long	0x5509
	.uleb128 0x2
	.byte	0x91
	.sleb128 -48
	.uleb128 0x21
	.ascii "__cd\0"
	.byte	0x3
	.short	0x2cf
	.byte	0x34
	.long	0x2c5f
	.byte	0
	.uleb128 0xe
	.byte	0x8
	.long	0x1512
	.uleb128 0x7
	.byte	0x8
	.long	0x5e11
	.uleb128 0x1c
	.long	0x50e1
	.long	0x5e20
	.uleb128 0x1
	.long	0x50e1
	.byte	0
	.uleb128 0x58
	.long	0x152a
	.long	0x5e2d
	.long	0x5e44
	.uleb128 0x26
	.set L$set$319,LASF29-Lsection__debug_str
	.long L$set$319
	.long	0x55ed
	.uleb128 0x3b
	.ascii "__pf\0"
	.byte	0x14
	.byte	0x87
	.byte	0x1e
	.long	0x5e0b
	.byte	0
	.uleb128 0x7
	.byte	0x8
	.long	0x5e4a
	.uleb128 0x1c
	.long	0x5e05
	.long	0x5e59
	.uleb128 0x1
	.long	0x5e05
	.byte	0
	.uleb128 0x58
	.long	0x1565
	.long	0x5e66
	.long	0x5e7d
	.uleb128 0x26
	.set L$set$320,LASF29-Lsection__debug_str
	.long L$set$320
	.long	0x55ed
	.uleb128 0x3b
	.ascii "__pf\0"
	.byte	0x14
	.byte	0x74
	.byte	0x24
	.long	0x5e44
	.byte	0
	.uleb128 0x59
	.long	0x2de9
	.long	0x5ea6
	.uleb128 0x9
	.set L$set$321,LASF4-Lsection__debug_str
	.long L$set$321
	.long	0x356b
	.uleb128 0x9
	.set L$set$322,LASF20-Lsection__debug_str
	.long L$set$322
	.long	0xa1b
	.uleb128 0x3b
	.ascii "__os\0"
	.byte	0x1a
	.byte	0x42
	.byte	0x2a
	.long	0x53c4
	.byte	0
	.uleb128 0x59
	.long	0x2e6c
	.long	0x5ed5
	.uleb128 0x9
	.set L$set$323,LASF20-Lsection__debug_str
	.long L$set$323
	.long	0xa1b
	.uleb128 0x3c
	.ascii "__out\0"
	.byte	0x14
	.short	0x2de
	.byte	0x2e
	.long	0x53c4
	.uleb128 0x3c
	.ascii "__s\0"
	.byte	0x14
	.short	0x2de
	.byte	0x41
	.long	0x391a
	.byte	0
	.uleb128 0x18
	.long	0x26f2
	.quad	LFB2990
	.set L$set$324,LFE2990-LFB2990
	.quad L$set$324
	.uleb128 0x1
	.byte	0x9c
	.long	0x5f1d
	.uleb128 0x9
	.set L$set$325,LASF16-Lsection__debug_str
	.long L$set$325
	.long	0x187d
	.uleb128 0x10
	.ascii "_Rep\0"
	.long	0x34a9
	.uleb128 0x9
	.set L$set$326,LASF14-Lsection__debug_str
	.long L$set$326
	.long	0x2b6d
	.uleb128 0x1b
	.ascii "__d\0"
	.byte	0x3
	.short	0x117
	.byte	0x34
	.long	0x5509
	.uleb128 0x2
	.byte	0x91
	.sleb128 -8
	.byte	0
	.uleb128 0xe
	.byte	0x8
	.long	0x2414
	.uleb128 0x18
	.long	0x2832
	.quad	LFB2989
	.set L$set$327,LFE2989-LFB2989
	.quad L$set$327
	.uleb128 0x1
	.byte	0x9c
	.long	0x5f82
	.uleb128 0x9
	.set L$set$328,LASF15-Lsection__debug_str
	.long L$set$328
	.long	0x1735
	.uleb128 0x10
	.ascii "_Dur1\0"
	.long	0x187d
	.uleb128 0x10
	.ascii "_Dur2\0"
	.long	0x187d
	.uleb128 0x1b
	.ascii "__lhs\0"
	.byte	0x3
	.short	0x479
	.byte	0x32
	.long	0x5f1d
	.uleb128 0x2
	.byte	0x91
	.sleb128 -24
	.uleb128 0x1b
	.ascii "__rhs\0"
	.byte	0x3
	.short	0x47a
	.byte	0x24
	.long	0x5f1d
	.uleb128 0x2
	.byte	0x91
	.sleb128 -32
	.byte	0
	.uleb128 0x3d
	.long	0x216e
	.long	0x5fa1
	.quad	LFB2978
	.set L$set$329,LFE2978-LFB2978
	.quad L$set$329
	.uleb128 0x1
	.byte	0x9c
	.long	0x5fae
	.uleb128 0x3e
	.set L$set$330,LASF29-Lsection__debug_str
	.long L$set$330
	.long	0x553e
	.uleb128 0x2
	.byte	0x91
	.sleb128 -8
	.byte	0
	.uleb128 0x86
	.ascii "main\0"
	.byte	0x1
	.byte	0x3c
	.byte	0x5
	.long	0x3468
	.quad	LFB2761
	.set L$set$331,LFE2761-LFB2761
	.quad L$set$331
	.uleb128 0x1
	.byte	0x9c
	.long	0x60e8
	.uleb128 0x12
	.ascii "secret_location_simulated\0"
	.byte	0x1
	.byte	0x4c
	.byte	0x14
	.long	0x3767
	.uleb128 0x2
	.byte	0x91
	.sleb128 -40
	.uleb128 0x12
	.ascii "malicious_index\0"
	.byte	0x1
	.byte	0x5a
	.byte	0xc
	.long	0x3697
	.uleb128 0x2
	.byte	0x91
	.sleb128 -48
	.uleb128 0x12
	.ascii "min_time\0"
	.byte	0x1
	.byte	0x67
	.byte	0xf
	.long	0x34a9
	.uleb128 0x2
	.byte	0x91
	.sleb128 -24
	.uleb128 0x12
	.ascii "leaked_byte\0"
	.byte	0x1
	.byte	0x68
	.byte	0x9
	.long	0x3468
	.uleb128 0x2
	.byte	0x91
	.sleb128 -28
	.uleb128 0x3f
	.quad	LBB6
	.set L$set$332,LBE6-LBB6
	.quad L$set$332
	.long	0x6060
	.uleb128 0x12
	.ascii "i\0"
	.byte	0x1
	.byte	0x3f
	.byte	0xe
	.long	0x3468
	.uleb128 0x2
	.byte	0x91
	.sleb128 -4
	.byte	0
	.uleb128 0x3f
	.quad	LBB7
	.set L$set$333,LBE7-LBB7
	.quad L$set$333
	.long	0x6083
	.uleb128 0x12
	.ascii "i\0"
	.byte	0x1
	.byte	0x53
	.byte	0xe
	.long	0x3468
	.uleb128 0x2
	.byte	0x91
	.sleb128 -8
	.byte	0
	.uleb128 0x3f
	.quad	LBB8
	.set L$set$334,LBE8-LBB8
	.quad L$set$334
	.long	0x60a6
	.uleb128 0x12
	.ascii "i\0"
	.byte	0x1
	.byte	0x5d
	.byte	0xe
	.long	0x3468
	.uleb128 0x2
	.byte	0x91
	.sleb128 -12
	.byte	0
	.uleb128 0x2e
	.quad	LBB9
	.set L$set$335,LBE9-LBB9
	.quad L$set$335
	.uleb128 0x12
	.ascii "i\0"
	.byte	0x1
	.byte	0x6a
	.byte	0xe
	.long	0x3468
	.uleb128 0x2
	.byte	0x91
	.sleb128 -32
	.uleb128 0x2e
	.quad	LBB10
	.set L$set$336,LBE10-LBB10
	.quad L$set$336
	.uleb128 0x12
	.ascii "time\0"
	.byte	0x1
	.byte	0x6c
	.byte	0x13
	.long	0x34a9
	.uleb128 0x2
	.byte	0x91
	.sleb128 -56
	.byte	0
	.byte	0
	.byte	0
	.uleb128 0x5a
	.ascii "flush_cache_line\0"
	.byte	0x1
	.byte	0x30
	.byte	0x6
	.ascii "_Z16flush_cache_linePVh\0"
	.quad	LFB2760
	.set L$set$337,LFE2760-LFB2760
	.quad L$set$337
	.uleb128 0x1
	.byte	0x9c
	.long	0x615b
	.uleb128 0x14
	.ascii "addr\0"
	.byte	0x1
	.byte	0x30
	.byte	0x2f
	.long	0x615b
	.uleb128 0x2
	.byte	0x91
	.sleb128 -24
	.uleb128 0x2e
	.quad	LBB5
	.set L$set$338,LBE5-LBB5
	.quad L$set$338
	.uleb128 0x12
	.ascii "i\0"
	.byte	0x1
	.byte	0x36
	.byte	0xe
	.long	0x3468
	.uleb128 0x2
	.byte	0x91
	.sleb128 -4
	.byte	0
	.byte	0
	.uleb128 0x7
	.byte	0x8
	.long	0x343b
	.uleb128 0x87
	.ascii "measure_access_time\0"
	.byte	0x1
	.byte	0x27
	.byte	0xb
	.ascii "_Z19measure_access_timePVh\0"
	.long	0x34a9
	.quad	LFB2759
	.set L$set$339,LFE2759-LFB2759
	.quad L$set$339
	.uleb128 0x1
	.byte	0x9c
	.long	0x61f0
	.uleb128 0x14
	.ascii "addr\0"
	.byte	0x1
	.byte	0x27
	.byte	0x37
	.long	0x615b
	.uleb128 0x2
	.byte	0x91
	.sleb128 -56
	.uleb128 0x12
	.ascii "start\0"
	.byte	0x1
	.byte	0x29
	.byte	0xa
	.long	0x1fea
	.uleb128 0x2
	.byte	0x91
	.sleb128 -24
	.uleb128 0x12
	.ascii "temp\0"
	.byte	0x1
	.byte	0x2a
	.byte	0x1c
	.long	0x343b
	.uleb128 0x2
	.byte	0x91
	.sleb128 -25
	.uleb128 0x12
	.ascii "end\0"
	.byte	0x1
	.byte	0x2b
	.byte	0xa
	.long	0x1fea
	.uleb128 0x2
	.byte	0x91
	.sleb128 -40
	.byte	0
	.uleb128 0x5a
	.ascii "victim_function\0"
	.byte	0x1
	.byte	0x13
	.byte	0x6
	.ascii "_Z15victim_functionm\0"
	.quad	LFB2758
	.set L$set$340,LFE2758-LFB2758
	.quad L$set$340
	.uleb128 0x1
	.byte	0x9c
	.long	0x6273
	.uleb128 0x14
	.ascii "index\0"
	.byte	0x1
	.byte	0x13
	.byte	0x1d
	.long	0x3697
	.uleb128 0x2
	.byte	0x91
	.sleb128 -24
	.uleb128 0x2e
	.quad	LBB4
	.set L$set$341,LBE4-LBB4
	.quad L$set$341
	.uleb128 0x88
	.set L$set$342,LASF0-Lsection__debug_str
	.long L$set$342
	.byte	0x1
	.byte	0x1b
	.byte	0x17
	.long	0x342a
	.uleb128 0x2
	.byte	0x91
	.sleb128 -1
	.uleb128 0x12
	.ascii "temp\0"
	.byte	0x1
	.byte	0x1f
	.byte	0x20
	.long	0x343b
	.uleb128 0x2
	.byte	0x91
	.sleb128 -2
	.byte	0
	.byte	0
	.uleb128 0x3d
	.long	0x1a87
	.long	0x6292
	.quad	LFB2250
	.set L$set$343,LFE2250-LFB2250
	.quad L$set$343
	.uleb128 0x1
	.byte	0x9c
	.long	0x629f
	.uleb128 0x3e
	.set L$set$344,LASF29-Lsection__debug_str
	.long L$set$344
	.long	0x551b
	.uleb128 0x2
	.byte	0x91
	.sleb128 -8
	.byte	0
	.uleb128 0xe
	.byte	0x8
	.long	0x34ba
	.uleb128 0x89
	.long	0x1f58
	.long	0x62bd
	.byte	0x2
	.long	0x62d6
	.uleb128 0x9
	.set L$set$345,LASF13-Lsection__debug_str
	.long L$set$345
	.long	0x34a9
	.uleb128 0x26
	.set L$set$346,LASF29-Lsection__debug_str
	.long L$set$346
	.long	0x5504
	.uleb128 0x3c
	.ascii "__rep\0"
	.byte	0x3
	.short	0x241
	.byte	0x2d
	.long	0x629f
	.byte	0
	.uleb128 0x8a
	.long	0x62a5
	.ascii "_ZNSt6chrono8durationIxSt5ratioILl1ELl1000000000EEEC1IxvEERKT_\0"
	.long	0x633e
	.quad	LFB2248
	.set L$set$347,LFE2248-LFB2248
	.quad L$set$347
	.uleb128 0x1
	.byte	0x9c
	.long	0x634f
	.uleb128 0x9
	.set L$set$348,LASF13-Lsection__debug_str
	.long L$set$348
	.long	0x34a9
	.uleb128 0x5b
	.long	0x62bd
	.uleb128 0x2
	.byte	0x91
	.sleb128 -8
	.uleb128 0x5b
	.long	0x62c6
	.uleb128 0x2
	.byte	0x91
	.sleb128 -16
	.byte	0
	.uleb128 0x18
	.long	0x2eea
	.quad	LFB1229
	.set L$set$349,LFE1229-LFB1229
	.quad L$set$349
	.uleb128 0x1
	.byte	0x9c
	.long	0x637e
	.uleb128 0x1b
	.ascii "__base\0"
	.byte	0x2
	.short	0x44e
	.byte	0x11
	.long	0x50e1
	.uleb128 0x2
	.byte	0x91
	.sleb128 -8
	.byte	0
	.uleb128 0x7
	.byte	0x8
	.long	0x127b
	.uleb128 0x8
	.long	0x637e
	.uleb128 0x3d
	.long	0x13c1
	.long	0x63a8
	.quad	LFB1201
	.set L$set$350,LFE1201-LFB1201
	.quad L$set$350
	.uleb128 0x1
	.byte	0x9c
	.long	0x63ef
	.uleb128 0x3e
	.set L$set$351,LASF29-Lsection__debug_str
	.long L$set$351
	.long	0x6384
	.uleb128 0x2
	.byte	0x91
	.sleb128 -24
	.uleb128 0x1b
	.ascii "__fmtfl\0"
	.byte	0x2
	.short	0x2e2
	.byte	0x13
	.long	0x13ae
	.uleb128 0x2
	.byte	0x91
	.sleb128 -28
	.uleb128 0x1b
	.ascii "__mask\0"
	.byte	0x2
	.short	0x2e2
	.byte	0x25
	.long	0x13ae
	.uleb128 0x2
	.byte	0x91
	.sleb128 -32
	.uleb128 0x8b
	.ascii "__old\0"
	.byte	0x2
	.short	0x2e4
	.byte	0x10
	.long	0x13ae
	.uleb128 0x2
	.byte	0x91
	.sleb128 -4
	.byte	0
	.uleb128 0xe
	.byte	0x8
	.long	0x1276
	.uleb128 0xe
	.byte	0x8
	.long	0x111c
	.uleb128 0x18
	.long	0x2f16
	.quad	LFB1172
	.set L$set$352,LFE1172-LFB1172
	.quad L$set$352
	.uleb128 0x1
	.byte	0x9c
	.long	0x6435
	.uleb128 0x14
	.ascii "__a\0"
	.byte	0x2
	.byte	0x6f
	.byte	0x1d
	.long	0x63f5
	.uleb128 0x2
	.byte	0x91
	.sleb128 -8
	.uleb128 0x14
	.ascii "__b\0"
	.byte	0x2
	.byte	0x6f
	.byte	0x30
	.long	0x111c
	.uleb128 0x2
	.byte	0x91
	.sleb128 -12
	.byte	0
	.uleb128 0x18
	.long	0x2f53
	.quad	LFB1171
	.set L$set$353,LFE1171-LFB1171
	.quad L$set$353
	.uleb128 0x1
	.byte	0x9c
	.long	0x646f
	.uleb128 0x14
	.ascii "__a\0"
	.byte	0x2
	.byte	0x6a
	.byte	0x1d
	.long	0x63f5
	.uleb128 0x2
	.byte	0x91
	.sleb128 -8
	.uleb128 0x14
	.ascii "__b\0"
	.byte	0x2
	.byte	0x6a
	.byte	0x30
	.long	0x111c
	.uleb128 0x2
	.byte	0x91
	.sleb128 -12
	.byte	0
	.uleb128 0x18
	.long	0x2f90
	.quad	LFB1170
	.set L$set$354,LFE1170-LFB1170
	.quad L$set$354
	.uleb128 0x1
	.byte	0x9c
	.long	0x649a
	.uleb128 0x14
	.ascii "__a\0"
	.byte	0x2
	.byte	0x65
	.byte	0x1b
	.long	0x111c
	.uleb128 0x2
	.byte	0x91
	.sleb128 -4
	.byte	0
	.uleb128 0x18
	.long	0x2fc4
	.quad	LFB1168
	.set L$set$355,LFE1168-LFB1168
	.quad L$set$355
	.uleb128 0x1
	.byte	0x9c
	.long	0x64d4
	.uleb128 0x14
	.ascii "__a\0"
	.byte	0x2
	.byte	0x5b
	.byte	0x1b
	.long	0x111c
	.uleb128 0x2
	.byte	0x91
	.sleb128 -4
	.uleb128 0x14
	.ascii "__b\0"
	.byte	0x2
	.byte	0x5b
	.byte	0x2e
	.long	0x111c
	.uleb128 0x2
	.byte	0x91
	.sleb128 -8
	.byte	0
	.uleb128 0x8c
	.long	0x2fff
	.quad	LFB1167
	.set L$set$356,LFE1167-LFB1167
	.quad L$set$356
	.uleb128 0x1
	.byte	0x9c
	.uleb128 0x14
	.ascii "__a\0"
	.byte	0x2
	.byte	0x56
	.byte	0x1b
	.long	0x111c
	.uleb128 0x2
	.byte	0x91
	.sleb128 -4
	.uleb128 0x14
	.ascii "__b\0"
	.byte	0x2
	.byte	0x56
	.byte	0x2e
	.long	0x111c
	.uleb128 0x2
	.byte	0x91
	.sleb128 -8
	.byte	0
	.byte	0
	.section __DWARF,__debug_abbrev,regular,debug
Lsection__debug_abbrev:
Ldebug_abbrev0:
	.uleb128 0x1
	.uleb128 0x5
	.byte	0
	.uleb128 0x49
	.uleb128 0x13
	.byte	0
	.byte	0
	.uleb128 0x2
	.uleb128 0x8
	.byte	0
	.uleb128 0x3a
	.uleb128 0xb
	.uleb128 0x3b
	.uleb128 0xb
	.uleb128 0x39
	.uleb128 0xb
	.uleb128 0x18
	.uleb128 0x13
	.byte	0
	.byte	0
	.uleb128 0x3
	.uleb128 0x2e
	.byte	0x1
	.uleb128 0x3f
	.uleb128 0x19
	.uleb128 0x3
	.uleb128 0x8
	.uleb128 0x3a
	.uleb128 0xb
	.uleb128 0x3b
	.uleb128 0xb
	.uleb128 0x39
	.uleb128 0xb
	.uleb128 0x49
	.uleb128 0x13
	.uleb128 0x3c
	.uleb128 0x19
	.uleb128 0x1
	.uleb128 0x13
	.byte	0
	.byte	0
	.uleb128 0x4
	.uleb128 0xd
	.byte	0
	.uleb128 0x3
	.uleb128 0x8
	.uleb128 0x3a
	.uleb128 0xb
	.uleb128 0x3b
	.uleb128 0xb
	.uleb128 0x39
	.uleb128 0xb
	.uleb128 0x49
	.uleb128 0x13
	.uleb128 0x38
	.uleb128 0xb
	.byte	0
	.byte	0
	.uleb128 0x5
	.uleb128 0x16
	.byte	0
	.uleb128 0x3
	.uleb128 0x8
	.uleb128 0x3a
	.uleb128 0xb
	.uleb128 0x3b
	.uleb128 0xb
	.uleb128 0x39
	.uleb128 0xb
	.uleb128 0x49
	.uleb128 0x13
	.byte	0
	.byte	0
	.uleb128 0x6
	.uleb128 0x5
	.byte	0
	.uleb128 0x49
	.uleb128 0x13
	.uleb128 0x34
	.uleb128 0x19
	.byte	0
	.byte	0
	.uleb128 0x7
	.uleb128 0xf
	.byte	0
	.uleb128 0xb
	.uleb128 0xb
	.uleb128 0x49
	.uleb128 0x13
	.byte	0
	.byte	0
	.uleb128 0x8
	.uleb128 0x26
	.byte	0
	.uleb128 0x49
	.uleb128 0x13
	.byte	0
	.byte	0
	.uleb128 0x9
	.uleb128 0x2f
	.byte	0
	.uleb128 0x3
	.uleb128 0xe
	.uleb128 0x49
	.uleb128 0x13
	.byte	0
	.byte	0
	.uleb128 0xa
	.uleb128 0x2e
	.byte	0x1
	.uleb128 0x3f
	.uleb128 0x19
	.uleb128 0x3
	.uleb128 0x8
	.uleb128 0x3a
	.uleb128 0xb
	.uleb128 0x3b
	.uleb128 0xb
	.uleb128 0x39
	.uleb128 0xb
	.uleb128 0x6e
	.uleb128 0x8
	.uleb128 0x49
	.uleb128 0x13
	.uleb128 0x3c
	.uleb128 0x19
	.uleb128 0x1
	.uleb128 0x13
	.byte	0
	.byte	0
	.uleb128 0xb
	.uleb128 0xd
	.byte	0
	.uleb128 0x3
	.uleb128 0xe
	.uleb128 0x3a
	.uleb128 0xb
	.uleb128 0x3b
	.uleb128 0xb
	.uleb128 0x39
	.uleb128 0xb
	.uleb128 0x49
	.uleb128 0x13
	.uleb128 0x3f
	.uleb128 0x19
	.uleb128 0x3c
	.uleb128 0x19
	.byte	0
	.byte	0
	.uleb128 0xc
	.uleb128 0x2e
	.byte	0x1
	.uleb128 0x3f
	.uleb128 0x19
	.uleb128 0x3
	.uleb128 0x8
	.uleb128 0x3a
	.uleb128 0xb
	.uleb128 0x3b
	.uleb128 0x5
	.uleb128 0x39
	.uleb128 0xb
	.uleb128 0x6e
	.uleb128 0x8
	.uleb128 0x49
	.uleb128 0x13
	.uleb128 0x3c
	.uleb128 0x19
	.uleb128 0x1
	.uleb128 0x13
	.byte	0
	.byte	0
	.uleb128 0xd
	.uleb128 0x24
	.byte	0
	.uleb128 0xb
	.uleb128 0xb
	.uleb128 0x3e
	.uleb128 0xb
	.uleb128 0x3
	.uleb128 0x8
	.byte	0
	.byte	0
	.uleb128 0xe
	.uleb128 0x10
	.byte	0
	.uleb128 0xb
	.uleb128 0xb
	.uleb128 0x49
	.uleb128 0x13
	.byte	0
	.byte	0
	.uleb128 0xf
	.uleb128 0x8
	.byte	0
	.uleb128 0x3a
	.uleb128 0xb
	.uleb128 0x3b
	.uleb128 0x5
	.uleb128 0x39
	.uleb128 0xb
	.uleb128 0x18
	.uleb128 0x13
	.byte	0
	.byte	0
	.uleb128 0x10
	.uleb128 0x2f
	.byte	0
	.uleb128 0x3
	.uleb128 0x8
	.uleb128 0x49
	.uleb128 0x13
	.byte	0
	.byte	0
	.uleb128 0x11
	.uleb128 0x13
	.byte	0x1
	.uleb128 0x3
	.uleb128 0x8
	.uleb128 0xb
	.uleb128 0xb
	.uleb128 0x3a
	.uleb128 0xb
	.uleb128 0x3b
	.uleb128 0xb
	.uleb128 0x39
	.uleb128 0xb
	.uleb128 0x1
	.uleb128 0x13
	.byte	0
	.byte	0
	.uleb128 0x12
	.uleb128 0x34
	.byte	0
	.uleb128 0x3
	.uleb128 0x8
	.uleb128 0x3a
	.uleb128 0xb
	.uleb128 0x3b
	.uleb128 0xb
	.uleb128 0x39
	.uleb128 0xb
	.uleb128 0x49
	.uleb128 0x13
	.uleb128 0x2
	.uleb128 0x18
	.byte	0
	.byte	0
	.uleb128 0x13
	.uleb128 0x34
	.byte	0
	.uleb128 0x6e
	.uleb128 0x8
	.uleb128 0x47
	.uleb128 0x13
	.uleb128 0x1c
	.uleb128 0xb
	.byte	0
	.byte	0
	.uleb128 0x14
	.uleb128 0x5
	.byte	0
	.uleb128 0x3
	.uleb128 0x8
	.uleb128 0x3a
	.uleb128 0xb
	.uleb128 0x3b
	.uleb128 0xb
	.uleb128 0x39
	.uleb128 0xb
	.uleb128 0x49
	.uleb128 0x13
	.uleb128 0x2
	.uleb128 0x18
	.byte	0
	.byte	0
	.uleb128 0x15
	.uleb128 0x2e
	.byte	0x1
	.uleb128 0x3f
	.uleb128 0x19
	.uleb128 0x3
	.uleb128 0x8
	.uleb128 0x3a
	.uleb128 0xb
	.uleb128 0x3b
	.uleb128 0x5
	.uleb128 0x39
	.uleb128 0xb
	.uleb128 0x49
	.uleb128 0x13
	.uleb128 0x3c
	.uleb128 0x19
	.uleb128 0x1
	.uleb128 0x13
	.byte	0
	.byte	0
	.uleb128 0x16
	.uleb128 0x28
	.byte	0
	.uleb128 0x3
	.uleb128 0x8
	.uleb128 0x1c
	.uleb128 0xb
	.byte	0
	.byte	0
	.uleb128 0x17
	.uleb128 0x2e
	.byte	0x1
	.uleb128 0x3f
	.uleb128 0x19
	.uleb128 0x3
	.uleb128 0xe
	.uleb128 0x3a
	.uleb128 0xb
	.uleb128 0x3b
	.uleb128 0x5
	.uleb128 0x39
	.uleb128 0xb
	.uleb128 0x6e
	.uleb128 0x8
	.uleb128 0x49
	.uleb128 0x13
	.uleb128 0x32
	.uleb128 0xb
	.uleb128 0x3c
	.uleb128 0x19
	.uleb128 0x64
	.uleb128 0x13
	.uleb128 0x1
	.uleb128 0x13
	.byte	0
	.byte	0
	.uleb128 0x18
	.uleb128 0x2e
	.byte	0x1
	.uleb128 0x47
	.uleb128 0x13
	.uleb128 0x11
	.uleb128 0x1
	.uleb128 0x12
	.uleb128 0x7
	.uleb128 0x40
	.uleb128 0x18
	.uleb128 0x1
	.uleb128 0x13
	.byte	0
	.byte	0
	.uleb128 0x19
	.uleb128 0x30
	.byte	0
	.uleb128 0x3
	.uleb128 0x8
	.uleb128 0x49
	.uleb128 0x13
	.uleb128 0x1c
	.uleb128 0xb
	.byte	0
	.byte	0
	.uleb128 0x1a
	.uleb128 0x28
	.byte	0
	.uleb128 0x3
	.uleb128 0x8
	.uleb128 0x1c
	.uleb128 0x5
	.byte	0
	.byte	0
	.uleb128 0x1b
	.uleb128 0x5
	.byte	0
	.uleb128 0x3
	.uleb128 0x8
	.uleb128 0x3a
	.uleb128 0xb
	.uleb128 0x3b
	.uleb128 0x5
	.uleb128 0x39
	.uleb128 0xb
	.uleb128 0x49
	.uleb128 0x13
	.uleb128 0x2
	.uleb128 0x18
	.byte	0
	.byte	0
	.uleb128 0x1c
	.uleb128 0x15
	.byte	0x1
	.uleb128 0x49
	.uleb128 0x13
	.uleb128 0x1
	.uleb128 0x13
	.byte	0
	.byte	0
	.uleb128 0x1d
	.uleb128 0x2e
	.byte	0x1
	.uleb128 0x3f
	.uleb128 0x19
	.uleb128 0x3
	.uleb128 0x8
	.uleb128 0x3a
	.uleb128 0xb
	.uleb128 0x3b
	.uleb128 0x5
	.uleb128 0x39
	.uleb128 0xb
	.uleb128 0x6e
	.uleb128 0x8
	.uleb128 0x49
	.uleb128 0x13
	.uleb128 0x32
	.uleb128 0xb
	.uleb128 0x3c
	.uleb128 0x19
	.uleb128 0x64
	.uleb128 0x13
	.uleb128 0x1
	.uleb128 0x13
	.byte	0
	.byte	0
	.uleb128 0x1e
	.uleb128 0x18
	.byte	0
	.byte	0
	.byte	0
	.uleb128 0x1f
	.uleb128 0x34
	.byte	0
	.uleb128 0x6e
	.uleb128 0x8
	.uleb128 0x47
	.uleb128 0x13
	.byte	0
	.byte	0
	.uleb128 0x20
	.uleb128 0x2e
	.byte	0x1
	.uleb128 0x3f
	.uleb128 0x19
	.uleb128 0x3
	.uleb128 0x8
	.uleb128 0x3a
	.uleb128 0xb
	.uleb128 0x3b
	.uleb128 0xb
	.uleb128 0x39
	.uleb128 0xb
	.uleb128 0x6e
	.uleb128 0x8
	.uleb128 0x49
	.uleb128 0x13
	.uleb128 0x3c
	.uleb128 0x19
	.uleb128 0x64
	.uleb128 0x13
	.uleb128 0x1
	.uleb128 0x13
	.byte	0
	.byte	0
	.uleb128 0x21
	.uleb128 0x16
	.byte	0
	.uleb128 0x3
	.uleb128 0x8
	.uleb128 0x3a
	.uleb128 0xb
	.uleb128 0x3b
	.uleb128 0x5
	.uleb128 0x39
	.uleb128 0xb
	.uleb128 0x49
	.uleb128 0x13
	.byte	0
	.byte	0
	.uleb128 0x22
	.uleb128 0x2e
	.byte	0x1
	.uleb128 0x3f
	.uleb128 0x19
	.uleb128 0x3
	.uleb128 0xe
	.uleb128 0x3a
	.uleb128 0xb
	.uleb128 0x3b
	.uleb128 0xb
	.uleb128 0x39
	.uleb128 0xb
	.uleb128 0x6e
	.uleb128 0x8
	.uleb128 0x49
	.uleb128 0x13
	.uleb128 0x32
	.uleb128 0xb
	.uleb128 0x3c
	.uleb128 0x19
	.uleb128 0x64
	.uleb128 0x13
	.uleb128 0x1
	.uleb128 0x13
	.byte	0
	.byte	0
	.uleb128 0x23
	.uleb128 0xd
	.byte	0
	.uleb128 0x3
	.uleb128 0x8
	.uleb128 0x3a
	.uleb128 0xb
	.uleb128 0x3b
	.uleb128 0x5
	.uleb128 0x39
	.uleb128 0xb
	.uleb128 0x49
	.uleb128 0x13
	.uleb128 0x3f
	.uleb128 0x19
	.uleb128 0x3c
	.uleb128 0x19
	.uleb128 0x1c
	.uleb128 0xb
	.uleb128 0x6c
	.uleb128 0x19
	.byte	0
	.byte	0
	.uleb128 0x24
	.uleb128 0x2e
	.byte	0
	.uleb128 0x3f
	.uleb128 0x19
	.uleb128 0x3
	.uleb128 0x8
	.uleb128 0x3a
	.uleb128 0xb
	.uleb128 0x3b
	.uleb128 0x5
	.uleb128 0x39
	.uleb128 0xb
	.uleb128 0x6e
	.uleb128 0x8
	.uleb128 0x49
	.uleb128 0x13
	.uleb128 0x32
	.uleb128 0xb
	.uleb128 0x3c
	.uleb128 0x19
	.byte	0
	.byte	0
	.uleb128 0x25
	.uleb128 0x1
	.byte	0x1
	.uleb128 0x49
	.uleb128 0x13
	.uleb128 0x1
	.uleb128 0x13
	.byte	0
	.byte	0
	.uleb128 0x26
	.uleb128 0x5
	.byte	0
	.uleb128 0x3
	.uleb128 0xe
	.uleb128 0x49
	.uleb128 0x13
	.uleb128 0x34
	.uleb128 0x19
	.byte	0
	.byte	0
	.uleb128 0x27
	.uleb128 0x39
	.byte	0x1
	.uleb128 0x3
	.uleb128 0x8
	.uleb128 0x3a
	.uleb128 0xb
	.uleb128 0x3b
	.uleb128 0x5
	.uleb128 0x39
	.uleb128 0xb
	.uleb128 0x1
	.uleb128 0x13
	.byte	0
	.byte	0
	.uleb128 0x28
	.uleb128 0xd
	.byte	0
	.uleb128 0x3
	.uleb128 0xe
	.uleb128 0x3a
	.uleb128 0xb
	.uleb128 0x3b
	.uleb128 0xb
	.uleb128 0x39
	.uleb128 0xb
	.uleb128 0x49
	.uleb128 0x13
	.uleb128 0x3f
	.uleb128 0x19
	.uleb128 0x3c
	.uleb128 0x19
	.uleb128 0x6c
	.uleb128 0x19
	.byte	0
	.byte	0
	.uleb128 0x29
	.uleb128 0x16
	.byte	0
	.uleb128 0x3
	.uleb128 0xe
	.uleb128 0x3a
	.uleb128 0xb
	.uleb128 0x3b
	.uleb128 0xb
	.uleb128 0x39
	.uleb128 0xb
	.uleb128 0x49
	.uleb128 0x13
	.byte	0
	.byte	0
	.uleb128 0x2a
	.uleb128 0x2e
	.byte	0x1
	.uleb128 0x3f
	.uleb128 0x19
	.uleb128 0x3
	.uleb128 0xe
	.uleb128 0x3a
	.uleb128 0xb
	.uleb128 0x3b
	.uleb128 0xb
	.uleb128 0x39
	.uleb128 0xb
	.uleb128 0x6e
	.uleb128 0x8
	.uleb128 0x32
	.uleb128 0xb
	.uleb128 0x3c
	.uleb128 0x19
	.uleb128 0x64
	.uleb128 0x13
	.uleb128 0x1
	.uleb128 0x13
	.byte	0
	.byte	0
	.uleb128 0x2b
	.uleb128 0x13
	.byte	0x1
	.uleb128 0x3
	.uleb128 0x8
	.uleb128 0xb
	.uleb128 0xb
	.uleb128 0x3a
	.uleb128 0xb
	.uleb128 0x3b
	.uleb128 0x5
	.uleb128 0x39
	.uleb128 0xb
	.uleb128 0x1
	.uleb128 0x13
	.byte	0
	.byte	0
	.uleb128 0x2c
	.uleb128 0x21
	.byte	0
	.uleb128 0x49
	.uleb128 0x13
	.uleb128 0x2f
	.uleb128 0xb
	.byte	0
	.byte	0
	.uleb128 0x2d
	.uleb128 0x2e
	.byte	0x1
	.uleb128 0x3f
	.uleb128 0x19
	.uleb128 0x3
	.uleb128 0x8
	.uleb128 0x3a
	.uleb128 0xb
	.uleb128 0x3b
	.uleb128 0xb
	.uleb128 0x39
	.uleb128 0xb
	.uleb128 0x3c
	.uleb128 0x19
	.uleb128 0x1
	.uleb128 0x13
	.byte	0
	.byte	0
	.uleb128 0x2e
	.uleb128 0xb
	.byte	0x1
	.uleb128 0x11
	.uleb128 0x1
	.uleb128 0x12
	.uleb128 0x7
	.byte	0
	.byte	0
	.uleb128 0x2f
	.uleb128 0x39
	.byte	0
	.uleb128 0x3
	.uleb128 0x8
	.uleb128 0x3a
	.uleb128 0xb
	.uleb128 0x3b
	.uleb128 0x5
	.uleb128 0x39
	.uleb128 0xb
	.byte	0
	.byte	0
	.uleb128 0x30
	.uleb128 0x3a
	.byte	0
	.uleb128 0x3a
	.uleb128 0xb
	.uleb128 0x3b
	.uleb128 0x5
	.uleb128 0x39
	.uleb128 0xb
	.uleb128 0x18
	.uleb128 0x13
	.byte	0
	.byte	0
	.uleb128 0x31
	.uleb128 0x39
	.byte	0
	.uleb128 0x3
	.uleb128 0x8
	.uleb128 0x3a
	.uleb128 0xb
	.uleb128 0x3b
	.uleb128 0xb
	.uleb128 0x39
	.uleb128 0xb
	.byte	0
	.byte	0
	.uleb128 0x32
	.uleb128 0x2e
	.byte	0x1
	.uleb128 0x3f
	.uleb128 0x19
	.uleb128 0x3
	.uleb128 0xe
	.uleb128 0x3a
	.uleb128 0xb
	.uleb128 0x3b
	.uleb128 0x5
	.uleb128 0x39
	.uleb128 0xb
	.uleb128 0x6e
	.uleb128 0x8
	.uleb128 0x32
	.uleb128 0xb
	.uleb128 0x3c
	.uleb128 0x19
	.uleb128 0x64
	.uleb128 0x13
	.uleb128 0x1
	.uleb128 0x13
	.byte	0
	.byte	0
	.uleb128 0x33
	.uleb128 0x30
	.byte	0
	.uleb128 0x3
	.uleb128 0x8
	.uleb128 0x49
	.uleb128 0x13
	.uleb128 0x1c
	.uleb128 0x6
	.byte	0
	.byte	0
	.uleb128 0x34
	.uleb128 0x2e
	.byte	0
	.uleb128 0x3f
	.uleb128 0x19
	.uleb128 0x3
	.uleb128 0x8
	.uleb128 0x3a
	.uleb128 0xb
	.uleb128 0x3b
	.uleb128 0xb
	.uleb128 0x39
	.uleb128 0xb
	.uleb128 0x49
	.uleb128 0x13
	.uleb128 0x3c
	.uleb128 0x19
	.byte	0
	.byte	0
	.uleb128 0x35
	.uleb128 0x34
	.byte	0
	.uleb128 0x47
	.uleb128 0x13
	.byte	0
	.byte	0
	.uleb128 0x36
	.uleb128 0x13
	.byte	0x1
	.uleb128 0xb
	.uleb128 0xb
	.uleb128 0x3a
	.uleb128 0xb
	.uleb128 0x3b
	.uleb128 0xb
	.uleb128 0x39
	.uleb128 0xb
	.uleb128 0x6e
	.uleb128 0x8
	.uleb128 0x1
	.uleb128 0x13
	.byte	0
	.byte	0
	.uleb128 0x37
	.uleb128 0x2e
	.byte	0x1
	.uleb128 0x3f
	.uleb128 0x19
	.uleb128 0x3
	.uleb128 0x8
	.uleb128 0x3a
	.uleb128 0xb
	.uleb128 0x3b
	.uleb128 0x5
	.uleb128 0x39
	.uleb128 0xb
	.uleb128 0x3c
	.uleb128 0x19
	.uleb128 0x1
	.uleb128 0x13
	.byte	0
	.byte	0
	.uleb128 0x38
	.uleb128 0x34
	.byte	0
	.uleb128 0x3
	.uleb128 0x8
	.uleb128 0x3a
	.uleb128 0xb
	.uleb128 0x3b
	.uleb128 0xb
	.uleb128 0x39
	.uleb128 0xb
	.uleb128 0x49
	.uleb128 0x13
	.uleb128 0x3f
	.uleb128 0x19
	.uleb128 0x2
	.uleb128 0x18
	.byte	0
	.byte	0
	.uleb128 0x39
	.uleb128 0x34
	.byte	0
	.uleb128 0x6e
	.uleb128 0x8
	.uleb128 0x47
	.uleb128 0x13
	.uleb128 0x1c
	.uleb128 0x5
	.byte	0
	.byte	0
	.uleb128 0x3a
	.uleb128 0x34
	.byte	0
	.uleb128 0x6e
	.uleb128 0x8
	.uleb128 0x47
	.uleb128 0x13
	.uleb128 0x1c
	.uleb128 0xd
	.byte	0
	.byte	0
	.uleb128 0x3b
	.uleb128 0x5
	.byte	0
	.uleb128 0x3
	.uleb128 0x8
	.uleb128 0x3a
	.uleb128 0xb
	.uleb128 0x3b
	.uleb128 0xb
	.uleb128 0x39
	.uleb128 0xb
	.uleb128 0x49
	.uleb128 0x13
	.byte	0
	.byte	0
	.uleb128 0x3c
	.uleb128 0x5
	.byte	0
	.uleb128 0x3
	.uleb128 0x8
	.uleb128 0x3a
	.uleb128 0xb
	.uleb128 0x3b
	.uleb128 0x5
	.uleb128 0x39
	.uleb128 0xb
	.uleb128 0x49
	.uleb128 0x13
	.byte	0
	.byte	0
	.uleb128 0x3d
	.uleb128 0x2e
	.byte	0x1
	.uleb128 0x47
	.uleb128 0x13
	.uleb128 0x64
	.uleb128 0x13
	.uleb128 0x11
	.uleb128 0x1
	.uleb128 0x12
	.uleb128 0x7
	.uleb128 0x40
	.uleb128 0x18
	.uleb128 0x1
	.uleb128 0x13
	.byte	0
	.byte	0
	.uleb128 0x3e
	.uleb128 0x5
	.byte	0
	.uleb128 0x3
	.uleb128 0xe
	.uleb128 0x49
	.uleb128 0x13
	.uleb128 0x34
	.uleb128 0x19
	.uleb128 0x2
	.uleb128 0x18
	.byte	0
	.byte	0
	.uleb128 0x3f
	.uleb128 0xb
	.byte	0x1
	.uleb128 0x11
	.uleb128 0x1
	.uleb128 0x12
	.uleb128 0x7
	.uleb128 0x1
	.uleb128 0x13
	.byte	0
	.byte	0
	.uleb128 0x40
	.uleb128 0x39
	.byte	0x1
	.uleb128 0x3
	.uleb128 0x8
	.uleb128 0x3a
	.uleb128 0xb
	.uleb128 0x3b
	.uleb128 0xb
	.uleb128 0x39
	.uleb128 0xb
	.uleb128 0x1
	.uleb128 0x13
	.byte	0
	.byte	0
	.uleb128 0x41
	.uleb128 0x2e
	.byte	0x1
	.uleb128 0x3f
	.uleb128 0x19
	.uleb128 0x3
	.uleb128 0x8
	.uleb128 0x3a
	.uleb128 0xb
	.uleb128 0x3b
	.uleb128 0xb
	.uleb128 0x39
	.uleb128 0xb
	.uleb128 0x6e
	.uleb128 0x8
	.uleb128 0x3c
	.uleb128 0x19
	.uleb128 0x64
	.uleb128 0x13
	.uleb128 0x1
	.uleb128 0x13
	.byte	0
	.byte	0
	.uleb128 0x42
	.uleb128 0x2e
	.byte	0x1
	.uleb128 0x3f
	.uleb128 0x19
	.uleb128 0x3
	.uleb128 0x8
	.uleb128 0x3a
	.uleb128 0xb
	.uleb128 0x3b
	.uleb128 0xb
	.uleb128 0x39
	.uleb128 0xb
	.uleb128 0x6e
	.uleb128 0x8
	.uleb128 0x32
	.uleb128 0xb
	.uleb128 0x3c
	.uleb128 0x19
	.uleb128 0x64
	.uleb128 0x13
	.uleb128 0x1
	.uleb128 0x13
	.byte	0
	.byte	0
	.uleb128 0x43
	.uleb128 0x2e
	.byte	0
	.uleb128 0x3f
	.uleb128 0x19
	.uleb128 0x3
	.uleb128 0x8
	.uleb128 0x3a
	.uleb128 0xb
	.uleb128 0x3b
	.uleb128 0x5
	.uleb128 0x39
	.uleb128 0xb
	.uleb128 0x6e
	.uleb128 0x8
	.uleb128 0x49
	.uleb128 0x13
	.uleb128 0x3c
	.uleb128 0x19
	.byte	0
	.byte	0
	.uleb128 0x44
	.uleb128 0x13
	.byte	0x1
	.uleb128 0x3
	.uleb128 0xe
	.uleb128 0xb
	.uleb128 0xb
	.uleb128 0x3a
	.uleb128 0xb
	.uleb128 0x3b
	.uleb128 0xb
	.uleb128 0x39
	.uleb128 0xb
	.uleb128 0x1
	.uleb128 0x13
	.byte	0
	.byte	0
	.uleb128 0x45
	.uleb128 0x2e
	.byte	0x1
	.uleb128 0x3f
	.uleb128 0x19
	.uleb128 0x3
	.uleb128 0xe
	.uleb128 0x3a
	.uleb128 0xb
	.uleb128 0x3b
	.uleb128 0xb
	.uleb128 0x39
	.uleb128 0xb
	.uleb128 0x6e
	.uleb128 0x8
	.uleb128 0x3c
	.uleb128 0x19
	.uleb128 0x63
	.uleb128 0x19
	.uleb128 0x64
	.uleb128 0x13
	.byte	0
	.byte	0
	.uleb128 0x46
	.uleb128 0x34
	.byte	0
	.uleb128 0x3
	.uleb128 0x8
	.uleb128 0x3a
	.uleb128 0xb
	.uleb128 0x3b
	.uleb128 0xb
	.uleb128 0x39
	.uleb128 0xb
	.uleb128 0x49
	.uleb128 0x13
	.uleb128 0x3c
	.uleb128 0x19
	.uleb128 0x1c
	.uleb128 0xa
	.uleb128 0x6c
	.uleb128 0x19
	.byte	0
	.byte	0
	.uleb128 0x47
	.uleb128 0x3a
	.byte	0
	.uleb128 0x3a
	.uleb128 0xb
	.uleb128 0x3b
	.uleb128 0xb
	.uleb128 0x39
	.uleb128 0xb
	.uleb128 0x18
	.uleb128 0x13
	.byte	0
	.byte	0
	.uleb128 0x48
	.uleb128 0x28
	.byte	0
	.uleb128 0x3
	.uleb128 0x8
	.uleb128 0x1c
	.uleb128 0x6
	.byte	0
	.byte	0
	.uleb128 0x49
	.uleb128 0x2
	.byte	0x1
	.uleb128 0x3
	.uleb128 0x8
	.uleb128 0x3c
	.uleb128 0x19
	.uleb128 0x1
	.uleb128 0x13
	.byte	0
	.byte	0
	.uleb128 0x4a
	.uleb128 0x2e
	.byte	0x1
	.uleb128 0x3f
	.uleb128 0x19
	.uleb128 0x3
	.uleb128 0x8
	.uleb128 0x3a
	.uleb128 0xb
	.uleb128 0x3b
	.uleb128 0x5
	.uleb128 0x39
	.uleb128 0xb
	.uleb128 0x6e
	.uleb128 0x8
	.uleb128 0x32
	.uleb128 0xb
	.uleb128 0x3c
	.uleb128 0x19
	.uleb128 0x64
	.uleb128 0x13
	.uleb128 0x20
	.uleb128 0xb
	.uleb128 0x1
	.uleb128 0x13
	.byte	0
	.byte	0
	.uleb128 0x4b
	.uleb128 0x2e
	.byte	0x1
	.uleb128 0x3f
	.uleb128 0x19
	.uleb128 0x3
	.uleb128 0x8
	.uleb128 0x3a
	.uleb128 0xb
	.uleb128 0x3b
	.uleb128 0x5
	.uleb128 0x39
	.uleb128 0xb
	.uleb128 0x6e
	.uleb128 0x8
	.uleb128 0x32
	.uleb128 0xb
	.uleb128 0x3c
	.uleb128 0x19
	.uleb128 0x64
	.uleb128 0x13
	.uleb128 0x1
	.uleb128 0x13
	.byte	0
	.byte	0
	.uleb128 0x4c
	.uleb128 0xd
	.byte	0
	.uleb128 0x3
	.uleb128 0x8
	.uleb128 0x3a
	.uleb128 0xb
	.uleb128 0x3b
	.uleb128 0x5
	.uleb128 0x39
	.uleb128 0xb
	.uleb128 0x49
	.uleb128 0x13
	.uleb128 0x3f
	.uleb128 0x19
	.uleb128 0x3c
	.uleb128 0x19
	.byte	0
	.byte	0
	.uleb128 0x4d
	.uleb128 0x16
	.byte	0
	.uleb128 0x3
	.uleb128 0x8
	.uleb128 0x3a
	.uleb128 0xb
	.uleb128 0x3b
	.uleb128 0x5
	.uleb128 0x39
	.uleb128 0xb
	.uleb128 0x49
	.uleb128 0x13
	.uleb128 0x32
	.uleb128 0xb
	.byte	0
	.byte	0
	.uleb128 0x4e
	.uleb128 0x2e
	.byte	0x1
	.uleb128 0x3f
	.uleb128 0x19
	.uleb128 0x3
	.uleb128 0x8
	.uleb128 0x3a
	.uleb128 0xb
	.uleb128 0x3b
	.uleb128 0x5
	.uleb128 0x39
	.uleb128 0xb
	.uleb128 0x6e
	.uleb128 0x8
	.uleb128 0x49
	.uleb128 0x13
	.uleb128 0x3c
	.uleb128 0x19
	.byte	0
	.byte	0
	.uleb128 0x4f
	.uleb128 0x2
	.byte	0x1
	.uleb128 0x3
	.uleb128 0x8
	.uleb128 0xb
	.uleb128 0xb
	.uleb128 0x3a
	.uleb128 0xb
	.uleb128 0x3b
	.uleb128 0x5
	.uleb128 0x39
	.uleb128 0xb
	.uleb128 0x1
	.uleb128 0x13
	.byte	0
	.byte	0
	.uleb128 0x50
	.uleb128 0xd
	.byte	0
	.uleb128 0x3
	.uleb128 0x8
	.uleb128 0x3a
	.uleb128 0xb
	.uleb128 0x3b
	.uleb128 0x5
	.uleb128 0x39
	.uleb128 0xb
	.uleb128 0x49
	.uleb128 0x13
	.uleb128 0x38
	.uleb128 0xb
	.byte	0
	.byte	0
	.uleb128 0x51
	.uleb128 0xd
	.byte	0
	.uleb128 0x3
	.uleb128 0x8
	.uleb128 0x3a
	.uleb128 0xb
	.uleb128 0x3b
	.uleb128 0x5
	.uleb128 0x39
	.uleb128 0xb
	.uleb128 0x49
	.uleb128 0x13
	.uleb128 0x3f
	.uleb128 0x19
	.uleb128 0x3c
	.uleb128 0x19
	.uleb128 0x1c
	.uleb128 0x6
	.uleb128 0x6c
	.uleb128 0x19
	.byte	0
	.byte	0
	.uleb128 0x52
	.uleb128 0x2f
	.byte	0
	.uleb128 0x49
	.uleb128 0x13
	.byte	0
	.byte	0
	.uleb128 0x53
	.uleb128 0xd
	.byte	0
	.uleb128 0x3
	.uleb128 0x8
	.uleb128 0x3a
	.uleb128 0xb
	.uleb128 0x3b
	.uleb128 0xb
	.uleb128 0x39
	.uleb128 0xb
	.uleb128 0x49
	.uleb128 0x13
	.byte	0
	.byte	0
	.uleb128 0x54
	.uleb128 0x2e
	.byte	0
	.uleb128 0x3f
	.uleb128 0x19
	.uleb128 0x3
	.uleb128 0x8
	.uleb128 0x3a
	.uleb128 0xb
	.uleb128 0x3b
	.uleb128 0x5
	.uleb128 0x39
	.uleb128 0xb
	.uleb128 0x49
	.uleb128 0x13
	.uleb128 0x3c
	.uleb128 0x19
	.byte	0
	.byte	0
	.uleb128 0x55
	.uleb128 0x34
	.byte	0
	.uleb128 0x6e
	.uleb128 0x8
	.uleb128 0x47
	.uleb128 0x13
	.uleb128 0x1c
	.uleb128 0x6
	.byte	0
	.byte	0
	.uleb128 0x56
	.uleb128 0x2e
	.byte	0x1
	.uleb128 0x31
	.uleb128 0x13
	.uleb128 0x6e
	.uleb128 0x8
	.uleb128 0x64
	.uleb128 0x13
	.uleb128 0x1
	.uleb128 0x13
	.byte	0
	.byte	0
	.uleb128 0x57
	.uleb128 0x2e
	.byte	0
	.uleb128 0x3
	.uleb128 0x8
	.uleb128 0x34
	.uleb128 0x19
	.uleb128 0x11
	.uleb128 0x1
	.uleb128 0x12
	.uleb128 0x7
	.uleb128 0x40
	.uleb128 0x18
	.byte	0
	.byte	0
	.uleb128 0x58
	.uleb128 0x2e
	.byte	0x1
	.uleb128 0x47
	.uleb128 0x13
	.uleb128 0x64
	.uleb128 0x13
	.uleb128 0x1
	.uleb128 0x13
	.byte	0
	.byte	0
	.uleb128 0x59
	.uleb128 0x2e
	.byte	0x1
	.uleb128 0x47
	.uleb128 0x13
	.uleb128 0x1
	.uleb128 0x13
	.byte	0
	.byte	0
	.uleb128 0x5a
	.uleb128 0x2e
	.byte	0x1
	.uleb128 0x3f
	.uleb128 0x19
	.uleb128 0x3
	.uleb128 0x8
	.uleb128 0x3a
	.uleb128 0xb
	.uleb128 0x3b
	.uleb128 0xb
	.uleb128 0x39
	.uleb128 0xb
	.uleb128 0x6e
	.uleb128 0x8
	.uleb128 0x11
	.uleb128 0x1
	.uleb128 0x12
	.uleb128 0x7
	.uleb128 0x40
	.uleb128 0x18
	.uleb128 0x1
	.uleb128 0x13
	.byte	0
	.byte	0
	.uleb128 0x5b
	.uleb128 0x5
	.byte	0
	.uleb128 0x31
	.uleb128 0x13
	.uleb128 0x2
	.uleb128 0x18
	.byte	0
	.byte	0
	.uleb128 0x5c
	.uleb128 0x11
	.byte	0x1
	.uleb128 0x25
	.uleb128 0x8
	.uleb128 0x13
	.uleb128 0xb
	.uleb128 0x3
	.uleb128 0x8
	.uleb128 0x1b
	.uleb128 0x8
	.uleb128 0x2134
	.uleb128 0x19
	.uleb128 0x55
	.uleb128 0x17
	.uleb128 0x11
	.uleb128 0x1
	.uleb128 0x10
	.uleb128 0x17
	.byte	0
	.byte	0
	.uleb128 0x5d
	.uleb128 0x2
	.byte	0x1
	.uleb128 0x3
	.uleb128 0xe
	.uleb128 0xb
	.uleb128 0xb
	.uleb128 0x3a
	.uleb128 0xb
	.uleb128 0x3b
	.uleb128 0xb
	.uleb128 0x39
	.uleb128 0xb
	.uleb128 0x1
	.uleb128 0x13
	.byte	0
	.byte	0
	.uleb128 0x5e
	.uleb128 0x2e
	.byte	0x1
	.uleb128 0x3f
	.uleb128 0x19
	.uleb128 0x3
	.uleb128 0xe
	.uleb128 0x3a
	.uleb128 0xb
	.uleb128 0x3b
	.uleb128 0xb
	.uleb128 0x39
	.uleb128 0xb
	.uleb128 0x6e
	.uleb128 0x8
	.uleb128 0x3c
	.uleb128 0x19
	.uleb128 0x63
	.uleb128 0x19
	.uleb128 0x64
	.uleb128 0x13
	.uleb128 0x1
	.uleb128 0x13
	.byte	0
	.byte	0
	.uleb128 0x5f
	.uleb128 0x2e
	.byte	0x1
	.uleb128 0x3f
	.uleb128 0x19
	.uleb128 0x3
	.uleb128 0x8
	.uleb128 0x3a
	.uleb128 0xb
	.uleb128 0x3b
	.uleb128 0xb
	.uleb128 0x39
	.uleb128 0xb
	.uleb128 0x6e
	.uleb128 0x8
	.uleb128 0x49
	.uleb128 0x13
	.uleb128 0x32
	.uleb128 0xb
	.uleb128 0x3c
	.uleb128 0x19
	.uleb128 0x63
	.uleb128 0x19
	.uleb128 0x64
	.uleb128 0x13
	.uleb128 0x1
	.uleb128 0x13
	.byte	0
	.byte	0
	.uleb128 0x60
	.uleb128 0x2e
	.byte	0x1
	.uleb128 0x3f
	.uleb128 0x19
	.uleb128 0x3
	.uleb128 0x8
	.uleb128 0x3a
	.uleb128 0xb
	.uleb128 0x3b
	.uleb128 0xb
	.uleb128 0x39
	.uleb128 0xb
	.uleb128 0x6e
	.uleb128 0x8
	.uleb128 0x49
	.uleb128 0x13
	.uleb128 0x32
	.uleb128 0xb
	.uleb128 0x3c
	.uleb128 0x19
	.uleb128 0x64
	.uleb128 0x13
	.byte	0
	.byte	0
	.uleb128 0x61
	.uleb128 0x2e
	.byte	0x1
	.uleb128 0x3f
	.uleb128 0x19
	.uleb128 0x3
	.uleb128 0x8
	.uleb128 0x3a
	.uleb128 0xb
	.uleb128 0x3b
	.uleb128 0xb
	.uleb128 0x39
	.uleb128 0xb
	.uleb128 0x6e
	.uleb128 0x8
	.uleb128 0x3c
	.uleb128 0x19
	.byte	0
	.byte	0
	.uleb128 0x62
	.uleb128 0x2e
	.byte	0x1
	.uleb128 0x3f
	.uleb128 0x19
	.uleb128 0x3
	.uleb128 0x8
	.uleb128 0x3a
	.uleb128 0xb
	.uleb128 0x3b
	.uleb128 0xb
	.uleb128 0x39
	.uleb128 0xb
	.uleb128 0x6e
	.uleb128 0x8
	.uleb128 0x3c
	.uleb128 0x19
	.uleb128 0x1
	.uleb128 0x13
	.byte	0
	.byte	0
	.uleb128 0x63
	.uleb128 0x2
	.byte	0
	.uleb128 0x3
	.uleb128 0x8
	.uleb128 0x3c
	.uleb128 0x19
	.byte	0
	.byte	0
	.uleb128 0x64
	.uleb128 0x2e
	.byte	0x1
	.uleb128 0x3f
	.uleb128 0x19
	.uleb128 0x3
	.uleb128 0x8
	.uleb128 0x3a
	.uleb128 0xb
	.uleb128 0x3b
	.uleb128 0x5
	.uleb128 0x39
	.uleb128 0xb
	.uleb128 0x6e
	.uleb128 0x8
	.uleb128 0x3c
	.uleb128 0x19
	.uleb128 0x1
	.uleb128 0x13
	.byte	0
	.byte	0
	.uleb128 0x65
	.uleb128 0x13
	.byte	0
	.uleb128 0x3
	.uleb128 0x8
	.uleb128 0xb
	.uleb128 0xb
	.uleb128 0x3a
	.uleb128 0xb
	.uleb128 0x3b
	.uleb128 0x5
	.uleb128 0x39
	.uleb128 0xb
	.byte	0
	.byte	0
	.uleb128 0x66
	.uleb128 0x34
	.byte	0
	.uleb128 0x3
	.uleb128 0x8
	.uleb128 0x3a
	.uleb128 0xb
	.uleb128 0x3b
	.uleb128 0x5
	.uleb128 0x39
	.uleb128 0xb
	.uleb128 0x49
	.uleb128 0x13
	.uleb128 0x3c
	.uleb128 0x19
	.uleb128 0x1c
	.uleb128 0xa
	.uleb128 0x6c
	.uleb128 0x19
	.byte	0
	.byte	0
	.uleb128 0x67
	.uleb128 0x4
	.byte	0x1
	.uleb128 0x3
	.uleb128 0x8
	.uleb128 0xb
	.uleb128 0xb
	.uleb128 0x49
	.uleb128 0x13
	.uleb128 0x3a
	.uleb128 0xb
	.uleb128 0x3b
	.uleb128 0xb
	.uleb128 0x39
	.uleb128 0xb
	.uleb128 0x1
	.uleb128 0x13
	.byte	0
	.byte	0
	.uleb128 0x68
	.uleb128 0x28
	.byte	0
	.uleb128 0x3
	.uleb128 0x8
	.uleb128 0x1c
	.uleb128 0xd
	.byte	0
	.byte	0
	.uleb128 0x69
	.uleb128 0x2
	.byte	0x1
	.uleb128 0x3
	.uleb128 0x8
	.uleb128 0xb
	.uleb128 0xb
	.uleb128 0x3a
	.uleb128 0xb
	.uleb128 0x3b
	.uleb128 0x5
	.uleb128 0x39
	.uleb128 0xb
	.uleb128 0x32
	.uleb128 0xb
	.uleb128 0x1
	.uleb128 0x13
	.byte	0
	.byte	0
	.uleb128 0x6a
	.uleb128 0x2e
	.byte	0x1
	.uleb128 0x3f
	.uleb128 0x19
	.uleb128 0x3
	.uleb128 0x8
	.uleb128 0x3a
	.uleb128 0xb
	.uleb128 0x3b
	.uleb128 0x5
	.uleb128 0x39
	.uleb128 0xb
	.uleb128 0x6e
	.uleb128 0x8
	.uleb128 0x49
	.uleb128 0x13
	.uleb128 0x32
	.uleb128 0xb
	.uleb128 0x3c
	.uleb128 0x19
	.uleb128 0x64
	.uleb128 0x13
	.byte	0
	.byte	0
	.uleb128 0x6b
	.uleb128 0x16
	.byte	0
	.uleb128 0x3
	.uleb128 0x8
	.uleb128 0x3a
	.uleb128 0xb
	.uleb128 0x3b
	.uleb128 0xb
	.uleb128 0x39
	.uleb128 0xb
	.uleb128 0x49
	.uleb128 0x13
	.uleb128 0x32
	.uleb128 0xb
	.byte	0
	.byte	0
	.uleb128 0x6c
	.uleb128 0x2f
	.byte	0
	.uleb128 0x3
	.uleb128 0xe
	.uleb128 0x49
	.uleb128 0x13
	.uleb128 0x1e
	.uleb128 0x19
	.byte	0
	.byte	0
	.uleb128 0x6d
	.uleb128 0x34
	.byte	0
	.uleb128 0x3
	.uleb128 0x8
	.uleb128 0x3a
	.uleb128 0xb
	.uleb128 0x3b
	.uleb128 0xb
	.uleb128 0x39
	.uleb128 0xb
	.uleb128 0x6e
	.uleb128 0x8
	.uleb128 0x49
	.uleb128 0x13
	.uleb128 0x3f
	.uleb128 0x19
	.uleb128 0x3c
	.uleb128 0x19
	.byte	0
	.byte	0
	.uleb128 0x6e
	.uleb128 0x34
	.byte	0
	.uleb128 0x3
	.uleb128 0x8
	.uleb128 0x3a
	.uleb128 0xb
	.uleb128 0x3b
	.uleb128 0xb
	.uleb128 0x39
	.uleb128 0xb
	.uleb128 0x49
	.uleb128 0x13
	.uleb128 0x3c
	.uleb128 0x19
	.byte	0
	.byte	0
	.uleb128 0x6f
	.uleb128 0x13
	.byte	0x1
	.uleb128 0x3
	.uleb128 0x8
	.uleb128 0xb
	.uleb128 0xb
	.uleb128 0x3a
	.uleb128 0xb
	.uleb128 0x3b
	.uleb128 0x5
	.uleb128 0x39
	.uleb128 0xb
	.byte	0
	.byte	0
	.uleb128 0x70
	.uleb128 0x16
	.byte	0
	.uleb128 0x3
	.uleb128 0xe
	.uleb128 0x3a
	.uleb128 0xb
	.uleb128 0x3b
	.uleb128 0x5
	.uleb128 0x39
	.uleb128 0xb
	.uleb128 0x49
	.uleb128 0x13
	.byte	0
	.byte	0
	.uleb128 0x71
	.uleb128 0x2e
	.byte	0x1
	.uleb128 0x3f
	.uleb128 0x19
	.uleb128 0x3
	.uleb128 0x8
	.uleb128 0x3a
	.uleb128 0xb
	.uleb128 0x3b
	.uleb128 0x5
	.uleb128 0x39
	.uleb128 0xb
	.uleb128 0x6e
	.uleb128 0x8
	.uleb128 0x32
	.uleb128 0xb
	.uleb128 0x3c
	.uleb128 0x19
	.uleb128 0x63
	.uleb128 0x19
	.uleb128 0x64
	.uleb128 0x13
	.uleb128 0x1
	.uleb128 0x13
	.byte	0
	.byte	0
	.uleb128 0x72
	.uleb128 0x2e
	.byte	0x1
	.uleb128 0x3f
	.uleb128 0x19
	.uleb128 0x3
	.uleb128 0xe
	.uleb128 0x3a
	.uleb128 0xb
	.uleb128 0x3b
	.uleb128 0x5
	.uleb128 0x39
	.uleb128 0xb
	.uleb128 0x6e
	.uleb128 0x8
	.uleb128 0x32
	.uleb128 0xb
	.uleb128 0x3c
	.uleb128 0x19
	.uleb128 0x63
	.uleb128 0x19
	.uleb128 0x64
	.uleb128 0x13
	.uleb128 0x1
	.uleb128 0x13
	.byte	0
	.byte	0
	.uleb128 0x73
	.uleb128 0x16
	.byte	0
	.uleb128 0x3
	.uleb128 0xe
	.uleb128 0x3a
	.uleb128 0xb
	.uleb128 0x3b
	.uleb128 0x5
	.uleb128 0x39
	.uleb128 0xb
	.uleb128 0x49
	.uleb128 0x13
	.uleb128 0x32
	.uleb128 0xb
	.byte	0
	.byte	0
	.uleb128 0x74
	.uleb128 0x4107
	.byte	0x1
	.uleb128 0x3
	.uleb128 0x8
	.byte	0
	.byte	0
	.uleb128 0x75
	.uleb128 0x30
	.byte	0
	.uleb128 0x3
	.uleb128 0x8
	.uleb128 0x49
	.uleb128 0x13
	.uleb128 0x1e
	.uleb128 0x19
	.uleb128 0x1c
	.uleb128 0xb
	.byte	0
	.byte	0
	.uleb128 0x76
	.uleb128 0x2e
	.byte	0x1
	.uleb128 0x3f
	.uleb128 0x19
	.uleb128 0x3
	.uleb128 0x8
	.uleb128 0x3a
	.uleb128 0xb
	.uleb128 0x3b
	.uleb128 0xb
	.uleb128 0x39
	.uleb128 0xb
	.uleb128 0x6e
	.uleb128 0x8
	.uleb128 0x49
	.uleb128 0x13
	.uleb128 0x3c
	.uleb128 0x19
	.byte	0
	.byte	0
	.uleb128 0x77
	.uleb128 0x13
	.byte	0x1
	.uleb128 0x3
	.uleb128 0x8
	.uleb128 0xb
	.uleb128 0xb
	.uleb128 0x3a
	.uleb128 0xb
	.uleb128 0x3b
	.uleb128 0xb
	.uleb128 0x39
	.uleb128 0xb
	.byte	0
	.byte	0
	.uleb128 0x78
	.uleb128 0x35
	.byte	0
	.uleb128 0x49
	.uleb128 0x13
	.byte	0
	.byte	0
	.uleb128 0x79
	.uleb128 0x17
	.byte	0x1
	.uleb128 0xb
	.uleb128 0xb
	.uleb128 0x3a
	.uleb128 0xb
	.uleb128 0x3b
	.uleb128 0xb
	.uleb128 0x39
	.uleb128 0xb
	.uleb128 0x6e
	.uleb128 0x8
	.uleb128 0x1
	.uleb128 0x13
	.byte	0
	.byte	0
	.uleb128 0x7a
	.uleb128 0xf
	.byte	0
	.uleb128 0xb
	.uleb128 0xb
	.uleb128 0x3
	.uleb128 0x8
	.uleb128 0x49
	.uleb128 0x13
	.byte	0
	.byte	0
	.uleb128 0x7b
	.uleb128 0xf
	.byte	0
	.uleb128 0xb
	.uleb128 0xb
	.byte	0
	.byte	0
	.uleb128 0x7c
	.uleb128 0x13
	.byte	0
	.uleb128 0x3
	.uleb128 0x8
	.uleb128 0x3c
	.uleb128 0x19
	.byte	0
	.byte	0
	.uleb128 0x7d
	.uleb128 0x3b
	.byte	0
	.uleb128 0x3
	.uleb128 0x8
	.byte	0
	.byte	0
	.uleb128 0x7e
	.uleb128 0x42
	.byte	0
	.uleb128 0xb
	.uleb128 0xb
	.uleb128 0x49
	.uleb128 0x13
	.byte	0
	.byte	0
	.uleb128 0x7f
	.uleb128 0x26
	.byte	0
	.byte	0
	.byte	0
	.uleb128 0x80
	.uleb128 0x15
	.byte	0
	.byte	0
	.byte	0
	.uleb128 0x81
	.uleb128 0x34
	.byte	0
	.uleb128 0x47
	.uleb128 0x13
	.uleb128 0x2
	.uleb128 0x18
	.byte	0
	.byte	0
	.uleb128 0x82
	.uleb128 0x2e
	.byte	0
	.uleb128 0x3f
	.uleb128 0x19
	.uleb128 0x3
	.uleb128 0x8
	.uleb128 0x3a
	.uleb128 0xb
	.uleb128 0x3b
	.uleb128 0xb
	.uleb128 0x39
	.uleb128 0xb
	.uleb128 0x6e
	.uleb128 0x8
	.uleb128 0x49
	.uleb128 0x13
	.uleb128 0x3c
	.uleb128 0x19
	.byte	0
	.byte	0
	.uleb128 0x83
	.uleb128 0x21
	.byte	0
	.uleb128 0x49
	.uleb128 0x13
	.uleb128 0x2f
	.uleb128 0x6
	.byte	0
	.byte	0
	.uleb128 0x84
	.uleb128 0x34
	.byte	0
	.uleb128 0x3
	.uleb128 0x8
	.uleb128 0x49
	.uleb128 0x13
	.uleb128 0x3f
	.uleb128 0x19
	.uleb128 0x34
	.uleb128 0x19
	.uleb128 0x3c
	.uleb128 0x19
	.byte	0
	.byte	0
	.uleb128 0x85
	.uleb128 0x34
	.byte	0
	.uleb128 0x6e
	.uleb128 0x8
	.uleb128 0x47
	.uleb128 0x13
	.uleb128 0x1c
	.uleb128 0x7
	.byte	0
	.byte	0
	.uleb128 0x86
	.uleb128 0x2e
	.byte	0x1
	.uleb128 0x3f
	.uleb128 0x19
	.uleb128 0x3
	.uleb128 0x8
	.uleb128 0x3a
	.uleb128 0xb
	.uleb128 0x3b
	.uleb128 0xb
	.uleb128 0x39
	.uleb128 0xb
	.uleb128 0x49
	.uleb128 0x13
	.uleb128 0x11
	.uleb128 0x1
	.uleb128 0x12
	.uleb128 0x7
	.uleb128 0x40
	.uleb128 0x18
	.uleb128 0x1
	.uleb128 0x13
	.byte	0
	.byte	0
	.uleb128 0x87
	.uleb128 0x2e
	.byte	0x1
	.uleb128 0x3f
	.uleb128 0x19
	.uleb128 0x3
	.uleb128 0x8
	.uleb128 0x3a
	.uleb128 0xb
	.uleb128 0x3b
	.uleb128 0xb
	.uleb128 0x39
	.uleb128 0xb
	.uleb128 0x6e
	.uleb128 0x8
	.uleb128 0x49
	.uleb128 0x13
	.uleb128 0x11
	.uleb128 0x1
	.uleb128 0x12
	.uleb128 0x7
	.uleb128 0x40
	.uleb128 0x18
	.uleb128 0x1
	.uleb128 0x13
	.byte	0
	.byte	0
	.uleb128 0x88
	.uleb128 0x34
	.byte	0
	.uleb128 0x3
	.uleb128 0xe
	.uleb128 0x3a
	.uleb128 0xb
	.uleb128 0x3b
	.uleb128 0xb
	.uleb128 0x39
	.uleb128 0xb
	.uleb128 0x49
	.uleb128 0x13
	.uleb128 0x2
	.uleb128 0x18
	.byte	0
	.byte	0
	.uleb128 0x89
	.uleb128 0x2e
	.byte	0x1
	.uleb128 0x47
	.uleb128 0x13
	.uleb128 0x64
	.uleb128 0x13
	.uleb128 0x20
	.uleb128 0xb
	.uleb128 0x1
	.uleb128 0x13
	.byte	0
	.byte	0
	.uleb128 0x8a
	.uleb128 0x2e
	.byte	0x1
	.uleb128 0x31
	.uleb128 0x13
	.uleb128 0x6e
	.uleb128 0x8
	.uleb128 0x64
	.uleb128 0x13
	.uleb128 0x11
	.uleb128 0x1
	.uleb128 0x12
	.uleb128 0x7
	.uleb128 0x40
	.uleb128 0x18
	.uleb128 0x1
	.uleb128 0x13
	.byte	0
	.byte	0
	.uleb128 0x8b
	.uleb128 0x34
	.byte	0
	.uleb128 0x3
	.uleb128 0x8
	.uleb128 0x3a
	.uleb128 0xb
	.uleb128 0x3b
	.uleb128 0x5
	.uleb128 0x39
	.uleb128 0xb
	.uleb128 0x49
	.uleb128 0x13
	.uleb128 0x2
	.uleb128 0x18
	.byte	0
	.byte	0
	.uleb128 0x8c
	.uleb128 0x2e
	.byte	0x1
	.uleb128 0x47
	.uleb128 0x13
	.uleb128 0x11
	.uleb128 0x1
	.uleb128 0x12
	.uleb128 0x7
	.uleb128 0x40
	.uleb128 0x18
	.byte	0
	.byte	0
	.byte	0
	.section __DWARF,__debug_pubnames,regular,debug
Lsection__debug_pubnames:
	.long	0x18e4
	.short	0x2
	.set L$set$357,Ldebug_info0-Lsection__debug_info
	.long L$set$357
	.long	0x650c
	.long	0xaa
	.ascii "std\0"
	.long	0xb7
	.ascii "std::__cxx11\0"
	.long	0x3037
	.ascii "__gnu_cxx\0"
	.long	0x304a
	.ascii "__gnu_cxx::__cxx11\0"
	.long	0x3a86
	.ascii "btowc\0"
	.long	0x3a9e
	.ascii "fgetwc\0"
	.long	0x3ab7
	.ascii "fgetws\0"
	.long	0x3af0
	.ascii "fputwc\0"
	.long	0x3b0e
	.ascii "fputws\0"
	.long	0x3b32
	.ascii "fwide\0"
	.long	0x3b4f
	.ascii "fwprintf\0"
	.long	0x3b70
	.ascii "fwscanf\0"
	.long	0x3b90
	.ascii "getwc\0"
	.long	0x3ba8
	.ascii "getwchar\0"
	.long	0x3bb9
	.ascii "mbrlen\0"
	.long	0x3be2
	.ascii "mbrtowc\0"
	.long	0x3c0b
	.ascii "mbsinit\0"
	.long	0x3c2b
	.ascii "mbsrtowcs\0"
	.long	0x3c56
	.ascii "putwc\0"
	.long	0x3c73
	.ascii "putwchar\0"
	.long	0x3c8e
	.ascii "swprintf\0"
	.long	0x3cb4
	.ascii "swscanf\0"
	.long	0x3cd4
	.ascii "ungetwc\0"
	.long	0x3cf3
	.ascii "vfwprintf\0"
	.long	0x3d19
	.ascii "vfwscanf\0"
	.long	0x3d3e
	.ascii "vswprintf\0"
	.long	0x3d69
	.ascii "vswscanf\0"
	.long	0x3d8e
	.ascii "vwprintf\0"
	.long	0x3dae
	.ascii "vwscanf\0"
	.long	0x3dcd
	.ascii "wcrtomb\0"
	.long	0x3df1
	.ascii "wcscat\0"
	.long	0x3e0f
	.ascii "wcscmp\0"
	.long	0x3e2d
	.ascii "wcscoll\0"
	.long	0x3e4c
	.ascii "wcscpy\0"
	.long	0x3e6a
	.ascii "wcscspn\0"
	.long	0x3e89
	.ascii "wcsftime\0"
	.long	0x3ec3
	.ascii "wcslen\0"
	.long	0x3edc
	.ascii "wcsncat\0"
	.long	0x3f00
	.ascii "wcsncmp\0"
	.long	0x3f24
	.ascii "wcsncpy\0"
	.long	0x3f48
	.ascii "wcsrtombs\0"
	.long	0x3f79
	.ascii "wcsspn\0"
	.long	0x3f97
	.ascii "wcstod\0"
	.long	0x3fc5
	.ascii "wcstof\0"
	.long	0x3fec
	.ascii "wcstok\0"
	.long	0x400f
	.ascii "wcstol\0"
	.long	0x4032
	.ascii "wcstoul\0"
	.long	0x4056
	.ascii "wcsxfrm\0"
	.long	0x407a
	.ascii "wctob\0"
	.long	0x4092
	.ascii "wmemcmp\0"
	.long	0x40b6
	.ascii "wmemcpy\0"
	.long	0x40da
	.ascii "wmemmove\0"
	.long	0x40ff
	.ascii "wmemset\0"
	.long	0x4123
	.ascii "wprintf\0"
	.long	0x413e
	.ascii "wscanf\0"
	.long	0x4158
	.ascii "wcschr\0"
	.long	0x4176
	.ascii "wcspbrk\0"
	.long	0x4195
	.ascii "wcsrchr\0"
	.long	0x41b4
	.ascii "wcsstr\0"
	.long	0x41d2
	.ascii "wmemchr\0"
	.long	0x41f6
	.ascii "wcstold\0"
	.long	0x4224
	.ascii "wcstoll\0"
	.long	0x4248
	.ascii "wcstoull\0"
	.long	0x4a1
	.ascii "std::__swappable_details\0"
	.long	0x4ba
	.ascii "std::__exception_ptr\0"
	.long	0x994
	.ascii "std::rethrow_exception\0"
	.long	0x943
	.ascii "std::__exception_ptr::swap\0"
	.long	0x4553
	.ascii "setlocale\0"
	.long	0x4574
	.ascii "localeconv\0"
	.long	0x458d
	.ascii "isalnum\0"
	.long	0x45b3
	.ascii "isalpha\0"
	.long	0x45d9
	.ascii "iscntrl\0"
	.long	0x45ff
	.ascii "isdigit\0"
	.long	0x4625
	.ascii "isgraph\0"
	.long	0x464b
	.ascii "islower\0"
	.long	0x4671
	.ascii "isprint\0"
	.long	0x4698
	.ascii "ispunct\0"
	.long	0x46bf
	.ascii "isspace\0"
	.long	0x46e6
	.ascii "isupper\0"
	.long	0x470d
	.ascii "isxdigit\0"
	.long	0x4736
	.ascii "tolower\0"
	.long	0x475d
	.ascii "toupper\0"
	.long	0x4784
	.ascii "isblank\0"
	.long	0x47c6
	.ascii "std::ignore\0"
	.long	0x47d1
	.ascii "std::piecewise_construct\0"
	.long	0x47d6
	.ascii "__gnu_debug\0"
	.long	0xf19
	.ascii "std::__debug\0"
	.long	0x31ad
	.ascii "__gnu_cxx::__ops\0"
	.long	0x4a84
	.ascii "atexit\0"
	.long	0x4aa5
	.ascii "at_quick_exit\0"
	.long	0x4ac5
	.ascii "atof\0"
	.long	0x4adc
	.ascii "atoi\0"
	.long	0x4af3
	.ascii "atol\0"
	.long	0x4b0a
	.ascii "bsearch\0"
	.long	0x4b52
	.ascii "div\0"
	.long	0x4b6d
	.ascii "getenv\0"
	.long	0x4b86
	.ascii "ldiv\0"
	.long	0x4ba2
	.ascii "mblen\0"
	.long	0x4bbf
	.ascii "mbstowcs\0"
	.long	0x4be4
	.ascii "mbtowc\0"
	.long	0x4c07
	.ascii "qsort\0"
	.long	0x4c2a
	.ascii "quick_exit\0"
	.long	0x4c43
	.ascii "rand\0"
	.long	0x4c50
	.ascii "srand\0"
	.long	0x4c64
	.ascii "strtod\0"
	.long	0x4c8a
	.ascii "strtol\0"
	.long	0x4cad
	.ascii "strtoul\0"
	.long	0x4cd1
	.ascii "system\0"
	.long	0x4cf2
	.ascii "wcstombs\0"
	.long	0x4d17
	.ascii "wctomb\0"
	.long	0x4d35
	.ascii "lldiv\0"
	.long	0x4d52
	.ascii "atoll\0"
	.long	0x4d6a
	.ascii "strtoll\0"
	.long	0x4d8e
	.ascii "strtoull\0"
	.long	0x4db3
	.ascii "strtof\0"
	.long	0x4dd9
	.ascii "strtold\0"
	.long	0x32b6
	.ascii "__gnu_cxx::div\0"
	.long	0x4df8
	.ascii "clearerr\0"
	.long	0x4e0f
	.ascii "fclose\0"
	.long	0x4e28
	.ascii "feof\0"
	.long	0x4e3f
	.ascii "ferror\0"
	.long	0x4e58
	.ascii "fflush\0"
	.long	0x4e71
	.ascii "fgetc\0"
	.long	0x4e89
	.ascii "fgetpos\0"
	.long	0x4eae
	.ascii "fgets\0"
	.long	0x4ed0
	.ascii "fopen\0"
	.long	0x4ef4
	.ascii "fread\0"
	.long	0x4f1c
	.ascii "freopen\0"
	.long	0x4f4a
	.ascii "fseek\0"
	.long	0x4f6d
	.ascii "fsetpos\0"
	.long	0x4f93
	.ascii "ftell\0"
	.long	0x4fac
	.ascii "getc\0"
	.long	0x4fc4
	.ascii "getchar\0"
	.long	0x4fd5
	.ascii "gets\0"
	.long	0x4fed
	.ascii "perror\0"
	.long	0x5003
	.ascii "remove\0"
	.long	0x501d
	.ascii "rename\0"
	.long	0x503c
	.ascii "rewind\0"
	.long	0x5052
	.ascii "setbuf\0"
	.long	0x506d
	.ascii "setvbuf\0"
	.long	0x5097
	.ascii "tmpfile\0"
	.long	0x50a8
	.ascii "tmpnam\0"
	.long	0x50c2
	.ascii "ungetc\0"
	.long	0x110c
	.ascii "std::_V2\0"
	.long	0x1137
	.ascii "std::_S_boolalpha\0"
	.long	0x1146
	.ascii "std::_S_dec\0"
	.long	0x114f
	.ascii "std::_S_fixed\0"
	.long	0x115a
	.ascii "std::_S_hex\0"
	.long	0x1163
	.ascii "std::_S_internal\0"
	.long	0x1171
	.ascii "std::_S_left\0"
	.long	0x117b
	.ascii "std::_S_oct\0"
	.long	0x1184
	.ascii "std::_S_right\0"
	.long	0x118f
	.ascii "std::_S_scientific\0"
	.long	0x11a0
	.ascii "std::_S_showbase\0"
	.long	0x11af
	.ascii "std::_S_showpoint\0"
	.long	0x11bf
	.ascii "std::_S_showpos\0"
	.long	0x11cd
	.ascii "std::_S_skipws\0"
	.long	0x11da
	.ascii "std::_S_unitbuf\0"
	.long	0x11e8
	.ascii "std::_S_uppercase\0"
	.long	0x11f8
	.ascii "std::_S_adjustfield\0"
	.long	0x1209
	.ascii "std::_S_basefield\0"
	.long	0x1218
	.ascii "std::_S_floatfield\0"
	.long	0x1229
	.ascii "std::_S_ios_fmtflags_end\0"
	.long	0x1242
	.ascii "std::_S_ios_fmtflags_max\0"
	.long	0x125b
	.ascii "std::_S_ios_fmtflags_min\0"
	.long	0x5110
	.ascii "iswalnum\0"
	.long	0x5138
	.ascii "iswalpha\0"
	.long	0x5160
	.ascii "iswblank\0"
	.long	0x5188
	.ascii "iswcntrl\0"
	.long	0x51b0
	.ascii "iswctype\0"
	.long	0x51de
	.ascii "iswdigit\0"
	.long	0x5206
	.ascii "iswgraph\0"
	.long	0x522e
	.ascii "iswlower\0"
	.long	0x5256
	.ascii "iswprint\0"
	.long	0x527e
	.ascii "iswpunct\0"
	.long	0x52a6
	.ascii "iswspace\0"
	.long	0x52ce
	.ascii "iswupper\0"
	.long	0x52f6
	.ascii "iswxdigit\0"
	.long	0x5320
	.ascii "towctrans\0"
	.long	0x5341
	.ascii "towlower\0"
	.long	0x5369
	.ascii "towupper\0"
	.long	0x5391
	.ascii "wctrans\0"
	.long	0x53ab
	.ascii "wctype\0"
	.long	0x53ca
	.ascii "std::__ioinit\0"
	.long	0x540b
	.ascii "clock\0"
	.long	0x5421
	.ascii "difftime\0"
	.long	0x5441
	.ascii "mktime\0"
	.long	0x5468
	.ascii "time\0"
	.long	0x5485
	.ascii "asctime\0"
	.long	0x549f
	.ascii "ctime\0"
	.long	0x54bd
	.ascii "gmtime\0"
	.long	0x54d6
	.ascii "localtime\0"
	.long	0x1719
	.ascii "std::chrono\0"
	.long	0x1728
	.ascii "std::chrono::_V2\0"
	.long	0x554f
	.ascii "std::allocator_arg\0"
	.long	0x5554
	.ascii "secret_data\0"
	.long	0x5572
	.ascii "public_array\0"
	.long	0x5591
	.ascii "PUBLIC_ARRAY_SIZE\0"
	.long	0x55c9
	.ascii "probe_array\0"
	.long	0x5605
	.ascii "std::integral_constant<bool, true>::value\0"
	.long	0x5632
	.ascii "std::integral_constant<bool, false>::value\0"
	.long	0x565f
	.ascii "__gnu_cxx::__numeric_traits_floating<float>::__max_exponent10\0"
	.long	0x56a4
	.ascii "__gnu_cxx::__numeric_traits_floating<double>::__max_exponent10\0"
	.long	0x56ea
	.ascii "__gnu_cxx::__numeric_traits_floating<long double>::__max_exponent10\0"
	.long	0x5730
	.ascii "__gnu_cxx::__numeric_traits_integer<int>::__is_signed\0"
	.long	0x576f
	.ascii "__gnu_cxx::__numeric_traits_integer<int>::__digits\0"
	.long	0x57aa
	.ascii "__gnu_cxx::__numeric_traits_integer<int>::__max\0"
	.long	0x57e5
	.ascii "__gnu_cxx::__numeric_traits_integer<int>::__min\0"
	.long	0x5821
	.ascii "__gnu_cxx::__numeric_traits_integer<long int>::__is_signed\0"
	.long	0x5860
	.ascii "__gnu_cxx::__numeric_traits_integer<long int>::__digits\0"
	.long	0x589b
	.ascii "__gnu_cxx::__numeric_traits_integer<long int>::__max\0"
	.long	0x58db
	.ascii "__gnu_cxx::__numeric_traits_integer<long int>::__min\0"
	.long	0x591c
	.ascii "__gnu_cxx::__numeric_traits_integer<long unsigned int>::__is_signed\0"
	.long	0x595b
	.ascii "__gnu_cxx::__numeric_traits_integer<long unsigned int>::__digits\0"
	.long	0x5996
	.ascii "__gnu_cxx::__numeric_traits_integer<char>::__is_signed\0"
	.long	0x59d5
	.ascii "__gnu_cxx::__numeric_traits_integer<char>::__digits\0"
	.long	0x5a10
	.ascii "__gnu_cxx::__numeric_traits_integer<char>::__max\0"
	.long	0x5a48
	.ascii "__gnu_cxx::__numeric_traits_integer<short int>::__is_signed\0"
	.long	0x5a87
	.ascii "__gnu_cxx::__numeric_traits_integer<short int>::__digits\0"
	.long	0x5ac2
	.ascii "__gnu_cxx::__numeric_traits_integer<short int>::__max\0"
	.long	0x5afb
	.ascii "__gnu_cxx::__numeric_traits_integer<short int>::__min\0"
	.long	0x5b35
	.ascii "std::ratio<1, 1000000000>::num\0"
	.long	0x5b5e
	.ascii "std::ratio<1, 1000000000>::den\0"
	.long	0x5b87
	.ascii "std::integral_constant<long int, 1>::value\0"
	.long	0x5bb4
	.ascii "std::integral_constant<long int, 1000000000>::value\0"
	.long	0x5bed
	.ascii "std::ratio<1>::num\0"
	.long	0x5c0d
	.ascii "std::ratio<1>::den\0"
	.long	0x5c2d
	.ascii "std::ratio<1000000000, 1>::num\0"
	.long	0x5c56
	.ascii "std::ratio<1000000000, 1>::den\0"
	.long	0x5cdd
	.ascii "_GLOBAL__sub_I_1.cpp\0"
	.long	0x5d05
	.ascii "__static_initialization_and_destruction_0\0"
	.long	0x5d42
	.ascii "std::chrono::__duration_cast_impl<std::chrono::duration<long long int, std::ratio<1, 1000000000> >, std::ratio<1>, long long int, true, true>::__cast<long long int, std::ratio<1, 1000000000> >\0"
	.long	0x25be
	.ascii "std::chrono::operator-<long long int, std::ratio<1, 1000000000>, long long int, std::ratio<1, 1000000000> >\0"
	.long	0x5d91
	.ascii "std::chrono::operator-<long long int, std::ratio<1, 1000000000>, long long int, std::ratio<1, 1000000000> >\0"
	.long	0x5e20
	.ascii "std::basic_ostream<char>::operator<<\0"
	.long	0x5e59
	.ascii "std::basic_ostream<char>::operator<<\0"
	.long	0x2de9
	.ascii "std::endl<char, std::char_traits<char> >\0"
	.long	0x5e7d
	.ascii "std::endl<char, std::char_traits<char> >\0"
	.long	0x2e6c
	.ascii "std::operator<< <std::char_traits<char> >\0"
	.long	0x5ea6
	.ascii "std::operator<< <std::char_traits<char> >\0"
	.long	0x26f2
	.ascii "std::chrono::duration_cast<std::chrono::duration<long long int, std::ratio<1, 1000000000> >, long long int, std::ratio<1, 1000000000> >\0"
	.long	0x5ed5
	.ascii "std::chrono::duration_cast<std::chrono::duration<long long int, std::ratio<1, 1000000000> >, long long int, std::ratio<1, 1000000000> >\0"
	.long	0x2832
	.ascii "std::chrono::operator-<std::chrono::_V2::system_clock, std::chrono::duration<long long int, std::ratio<1, 1000000000> >, std::chrono::duration<long long int, std::ratio<1, 1000000000> > >\0"
	.long	0x5f23
	.ascii "std::chrono::operator-<std::chrono::_V2::system_clock, std::chrono::duration<long long int, std::ratio<1, 1000000000> >, std::chrono::duration<long long int, std::ratio<1, 1000000000> > >\0"
	.long	0x5f82
	.ascii "std::chrono::time_point<std::chrono::_V2::system_clock, std::chrono::duration<long long int, std::ratio<1, 1000000000> > >::time_since_epoch\0"
	.long	0x5fae
	.ascii "main\0"
	.long	0x60e8
	.ascii "flush_cache_line\0"
	.long	0x6161
	.ascii "measure_access_time\0"
	.long	0x61f0
	.ascii "victim_function\0"
	.long	0x6273
	.ascii "std::chrono::duration<long long int, std::ratio<1, 1000000000> >::count\0"
	.long	0x62a5
	.ascii "std::chrono::duration<long long int, std::ratio<1, 1000000000> >::duration<long long int>\0"
	.long	0x2eea
	.ascii "std::hex\0"
	.long	0x634f
	.ascii "std::hex\0"
	.long	0x6389
	.ascii "std::ios_base::setf\0"
	.long	0x2f16
	.ascii "std::operator&=\0"
	.long	0x63fb
	.ascii "std::operator&=\0"
	.long	0x2f53
	.ascii "std::operator|=\0"
	.long	0x6435
	.ascii "std::operator|=\0"
	.long	0x2f90
	.ascii "std::operator~\0"
	.long	0x646f
	.ascii "std::operator~\0"
	.long	0x2fc4
	.ascii "std::operator|\0"
	.long	0x649a
	.ascii "std::operator|\0"
	.long	0x2fff
	.ascii "std::operator&\0"
	.long	0x64d4
	.ascii "std::operator&\0"
	.long	0
	.section __DWARF,__debug_pubtypes,regular,debug
Lsection__debug_pubtypes:
	.long	0x10cc
	.short	0x2
	.set L$set$358,Ldebug_info0-Lsection__debug_info
	.long L$set$358
	.long	0x650c
	.long	0x341b
	.ascii "signed char\0"
	.long	0x342a
	.ascii "unsigned char\0"
	.long	0x3440
	.ascii "short int\0"
	.long	0x3452
	.ascii "short unsigned int\0"
	.long	0x3468
	.ascii "int\0"
	.long	0x3487
	.ascii "unsigned int\0"
	.long	0x3474
	.ascii "__uint32_t\0"
	.long	0x34a9
	.ascii "long long int\0"
	.long	0x3497
	.ascii "__int64_t\0"
	.long	0x34bf
	.ascii "long long unsigned int\0"
	.long	0x34f3
	.ascii "long int\0"
	.long	0x34d9
	.ascii "__darwin_intptr_t\0"
	.long	0x3551
	.ascii "long unsigned int\0"
	.long	0x356b
	.ascii "char\0"
	.long	0x3578
	.ascii "__mbstate_t\0"
	.long	0x358c
	.ascii "__darwin_mbstate_t\0"
	.long	0x35a7
	.ascii "__darwin_size_t\0"
	.long	0x35bf
	.ascii "__darwin_va_list\0"
	.long	0x35f0
	.ascii "__darwin_wint_t\0"
	.long	0x3608
	.ascii "__darwin_clock_t\0"
	.long	0x3621
	.ascii "__darwin_time_t\0"
	.long	0x3639
	.ascii "__darwin_off_t\0"
	.long	0x3662
	.ascii "__darwin_wctrans_t\0"
	.long	0x367d
	.ascii "__darwin_wctype_t\0"
	.long	0x3697
	.ascii "size_t\0"
	.long	0x36ab
	.ascii "int8_t\0"
	.long	0x36ba
	.ascii "int16_t\0"
	.long	0x36ca
	.ascii "int32_t\0"
	.long	0x36da
	.ascii "int64_t\0"
	.long	0x36ea
	.ascii "intptr_t\0"
	.long	0x36fb
	.ascii "uintptr_t\0"
	.long	0x370d
	.ascii "mbstate_t\0"
	.long	0x3724
	.ascii "fpos_t\0"
	.long	0x3738
	.ascii "__sbuf\0"
	.long	0x376d
	.ascii "__sFILE\0"
	.long	0x3956
	.ascii "FILE\0"
	.long	0x3969
	.ascii "clock_t\0"
	.long	0x3979
	.ascii "time_t\0"
	.long	0x398d
	.ascii "tm\0"
	.long	0x3a5a
	.ascii "wint_t\0"
	.long	0x3a69
	.ascii "wctype_t\0"
	.long	0x3ae0
	.ascii "wchar_t\0"
	.long	0x3fb5
	.ascii "double\0"
	.long	0x3fe3
	.ascii "float\0"
	.long	0x4215
	.ascii "long double\0"
	.long	0x426d
	.ascii "__float128\0"
	.long	0x2f7
	.ascii "std::integral_constant<bool, true>\0"
	.long	0x428e
	.ascii "bool\0"
	.long	0x2f7
	.ascii "std::integral_constant<bool, true>\0"
	.long	0x3c3
	.ascii "std::integral_constant<bool, false>\0"
	.long	0x3c3
	.ascii "std::integral_constant<bool, false>\0"
	.long	0x491
	.ascii "std::size_t\0"
	.long	0x42a7
	.ascii "char16_t\0"
	.long	0x42b3
	.ascii "char32_t\0"
	.long	0x4d2
	.ascii "std::__exception_ptr::exception_ptr\0"
	.long	0x9f0
	.ascii "std::nullptr_t\0"
	.long	0xa03
	.ascii "std::type_info\0"
	.long	0x4d2
	.ascii "std::__exception_ptr::exception_ptr\0"
	.long	0xa1b
	.ascii "std::char_traits<char>\0"
	.long	0xa1b
	.ascii "std::char_traits<char>\0"
	.long	0x4301
	.ascii "lconv\0"
	.long	0x47aa
	.ascii "_Atomic_word\0"
	.long	0x307a
	.ascii "__gnu_cxx::__numeric_traits_floating<float>\0"
	.long	0x307a
	.ascii "__gnu_cxx::__numeric_traits_floating<float>\0"
	.long	0x30de
	.ascii "__gnu_cxx::__numeric_traits_floating<double>\0"
	.long	0x30de
	.ascii "__gnu_cxx::__numeric_traits_floating<double>\0"
	.long	0x3143
	.ascii "__gnu_cxx::__numeric_traits_floating<long double>\0"
	.long	0x3143
	.ascii "__gnu_cxx::__numeric_traits_floating<long double>\0"
	.long	0xe88
	.ascii "std::_Swallow_assign\0"
	.long	0xe88
	.ascii "std::_Swallow_assign\0"
	.long	0xeb5
	.ascii "std::piecewise_construct_t\0"
	.long	0xeb5
	.ascii "std::piecewise_construct_t\0"
	.long	0x31b7
	.ascii "__gnu_cxx::__numeric_traits_integer<int>\0"
	.long	0x31b7
	.ascii "__gnu_cxx::__numeric_traits_integer<int>\0"
	.long	0x3218
	.ascii "__gnu_cxx::__numeric_traits_integer<long int>\0"
	.long	0x3218
	.ascii "__gnu_cxx::__numeric_traits_integer<long int>\0"
	.long	0x47f4
	.ascii "__int128 unsigned\0"
	.long	0x4809
	.ascii "uint8_t\0"
	.long	0x4819
	.ascii "uint16_t\0"
	.long	0x482a
	.ascii "uint32_t\0"
	.long	0x483b
	.ascii "uint64_t\0"
	.long	0x484c
	.ascii "int_least8_t\0"
	.long	0x4861
	.ascii "int_least16_t\0"
	.long	0x4877
	.ascii "int_least32_t\0"
	.long	0x488d
	.ascii "int_least64_t\0"
	.long	0x48a3
	.ascii "uint_least8_t\0"
	.long	0x48b9
	.ascii "uint_least16_t\0"
	.long	0x48d0
	.ascii "uint_least32_t\0"
	.long	0x48e7
	.ascii "uint_least64_t\0"
	.long	0x48fe
	.ascii "int_fast8_t\0"
	.long	0x4912
	.ascii "int_fast16_t\0"
	.long	0x4927
	.ascii "int_fast32_t\0"
	.long	0x493c
	.ascii "int_fast64_t\0"
	.long	0x4951
	.ascii "uint_fast8_t\0"
	.long	0x4966
	.ascii "uint_fast16_t\0"
	.long	0x497c
	.ascii "uint_fast32_t\0"
	.long	0x4992
	.ascii "uint_fast64_t\0"
	.long	0x49a8
	.ascii "intmax_t\0"
	.long	0x49be
	.ascii "uintmax_t\0"
	.long	0x49fc
	.ascii "div_t\0"
	.long	0x4a37
	.ascii "ldiv_t\0"
	.long	0x4a74
	.ascii "lldiv_t\0"
	.long	0x32e6
	.ascii "__gnu_cxx::__numeric_traits_integer<long unsigned int>\0"
	.long	0x32e6
	.ascii "__gnu_cxx::__numeric_traits_integer<long unsigned int>\0"
	.long	0x111c
	.ascii "std::_Ios_Fmtflags\0"
	.long	0x50fe
	.ascii "wctrans_t\0"
	.long	0x3355
	.ascii "__gnu_cxx::__numeric_traits_integer<char>\0"
	.long	0x3355
	.ascii "__gnu_cxx::__numeric_traits_integer<char>\0"
	.long	0x14b6
	.ascii "std::basic_ostream<char, std::char_traits<char> >\0"
	.long	0x33b7
	.ascii "__gnu_cxx::__numeric_traits_integer<short int>\0"
	.long	0x33b7
	.ascii "__gnu_cxx::__numeric_traits_integer<short int>\0"
	.long	0x15a9
	.ascii "std::ostream\0"
	.long	0x53da
	.ascii "__int128\0"
	.long	0x53e6
	.ascii "_Float32\0"
	.long	0x53f2
	.ascii "_Float64\0"
	.long	0x53fe
	.ascii "_Float128\0"
	.long	0x29b3
	.ascii "std::integral_constant<long int, 1>\0"
	.long	0x29b3
	.ascii "std::integral_constant<long int, 1>\0"
	.long	0x2a81
	.ascii "std::integral_constant<long int, 1000000000>\0"
	.long	0x2a81
	.ascii "std::integral_constant<long int, 1000000000>\0"
	.long	0x2b6d
	.ascii "std::ratio<1, 1000000000>\0"
	.long	0x2b6d
	.ascii "std::ratio<1, 1000000000>\0"
	.long	0x187d
	.ascii "std::chrono::duration<long long int, std::ratio<1, 1000000000> >\0"
	.long	0x187d
	.ascii "std::chrono::duration<long long int, std::ratio<1, 1000000000> >\0"
	.long	0x2bc5
	.ascii "std::common_type<std::chrono::duration<long long int, std::ratio<1, 1000000000> >, std::chrono::duration<long long int, std::ratio<1, 1000000000> > >\0"
	.long	0x2bc5
	.ascii "std::common_type<std::chrono::duration<long long int, std::ratio<1, 1000000000> >, std::chrono::duration<long long int, std::ratio<1, 1000000000> > >\0"
	.long	0x2c7d
	.ascii "std::ratio<1, 1>\0"
	.long	0x2c7d
	.ascii "std::ratio<1, 1>\0"
	.long	0x1735
	.ascii "std::chrono::_V2::system_clock\0"
	.long	0x1735
	.ascii "std::chrono::_V2::system_clock\0"
	.long	0x1fea
	.ascii "std::chrono::time_point<std::chrono::_V2::system_clock, std::chrono::duration<long long int, std::ratio<1, 1000000000> > >\0"
	.long	0x1fea
	.ascii "std::chrono::time_point<std::chrono::_V2::system_clock, std::chrono::duration<long long int, std::ratio<1, 1000000000> > >\0"
	.long	0x2cc6
	.ascii "std::allocator_arg_t\0"
	.long	0x2cc6
	.ascii "std::allocator_arg_t\0"
	.long	0x2d1e
	.ascii "std::enable_if<true, std::chrono::duration<long long int, std::ratio<1, 1000000000> > >\0"
	.long	0x2d1e
	.ascii "std::enable_if<true, std::chrono::duration<long long int, std::ratio<1, 1000000000> > >\0"
	.long	0x2d91
	.ascii "std::ratio<1000000000, 1>\0"
	.long	0x2d91
	.ascii "std::ratio<1000000000, 1>\0"
	.long	0x2419
	.ascii "std::chrono::__duration_cast_impl<std::chrono::duration<long long int, std::ratio<1, 1000000000> >, std::ratio<1, 1>, long long int, true, true>\0"
	.long	0x2419
	.ascii "std::chrono::__duration_cast_impl<std::chrono::duration<long long int, std::ratio<1, 1000000000> >, std::ratio<1, 1>, long long int, true, true>\0"
	.long	0x26d2
	.ascii "std::chrono::__enable_if_is_duration\0"
	.long	0
	.section __DWARF,__debug_aranges,regular,debug
Lsection__debug_aranges:
	.long	0x4c
	.short	0x2
	.set L$set$359,Ldebug_info0-Lsection__debug_info
	.long L$set$359
	.byte	0x8
	.byte	0
	.short	0
	.short	0
	.quad	Ltext0
	.set L$set$360,Letext0-Ltext0
	.quad L$set$360
	.quad	LFB3172
	.set L$set$361,LFE3172-LFB3172
	.quad L$set$361
	.quad	LFB3173
	.set L$set$362,LFE3173-LFB3173
	.quad L$set$362
	.quad	0
	.quad	0
	.section __DWARF,__debug_ranges,regular,debug
Lsection__debug_ranges:
Ldebug_ranges0:
	.quad	Ltext0
	.quad	Letext0
	.quad	LFB3172
	.quad	LFE3172
	.quad	LFB3173
	.quad	LFE3173
	.quad	0
	.quad	0
	.section __DWARF,__debug_line,regular,debug
Lsection__debug_line:
Ldebug_line0:
	.section __DWARF,__debug_str,regular,debug
Lsection__debug_str:
LASF24:
	.ascii "__max_exponent10\0"
LASF5:
	.ascii "piecewise_construct_t\0"
LASF1:
	.ascii "value_type\0"
LASF0:
	.ascii "value\0"
LASF8:
	.ascii "duration\0"
LASF21:
	.ascii "__max_digits10\0"
LASF6:
	.ascii "operator<<\0"
LASF12:
	.ascii "operator-=\0"
LASF17:
	.ascii "_Period1\0"
LASF18:
	.ascii "_Period2\0"
LASF28:
	.ascii "__min\0"
LASF3:
	.ascii "operator=\0"
LASF23:
	.ascii "__digits10\0"
LASF29:
	.ascii "this\0"
LASF15:
	.ascii "_Clock\0"
LASF2:
	.ascii "exception_ptr\0"
LASF16:
	.ascii "_ToDur\0"
LASF14:
	.ascii "_Period\0"
LASF9:
	.ascii "operator++\0"
LASF22:
	.ascii "__is_signed\0"
LASF10:
	.ascii "operator--\0"
LASF26:
	.ascii "__digits\0"
LASF11:
	.ascii "operator+=\0"
LASF7:
	.ascii "time_point\0"
LASF25:
	.ascii "_Value\0"
LASF20:
	.ascii "_Traits\0"
LASF27:
	.ascii "__max\0"
LASF19:
	.ascii "allocator_arg_t\0"
LASF13:
	.ascii "_Rep2\0"
LASF4:
	.ascii "_CharT\0"
	.private_extern ___dso_handle
	.ident	"GCC: (Homebrew GCC 15.1.0) 15.1.0"
	.mod_init_func
_Mod.init:
	.align	3
	.xword	__GLOBAL__sub_I_1.cpp
	.subsections_via_symbols
